 crc64_ecma182

 Timestamp is 5a484071 (Sun Dec 31 09:42:09 2017)

 Preferred load address is 0000000180000000

 Start         Length     Name                   Class
 0001:00000000 0000f130H .text$mn                CODE
 0001:0000f130 00000020H .text$mn$00             CODE
 0001:0000f150 00000260H .text$x                 CODE
 0002:00000000 000002e8H .idata$5                DATA
 0002:000002e8 00000010H .00cfg                  DATA
 0002:000002f8 00000008H .CRT$XCA                DATA
 0002:00000300 00000008H .CRT$XCU                DATA
 0002:00000308 00000008H .CRT$XCZ                DATA
 0002:00000310 00000008H .CRT$XIA                DATA
 0002:00000318 00000018H .CRT$XIC                DATA
 0002:00000330 00000008H .CRT$XIZ                DATA
 0002:00000338 00000008H .CRT$XPA                DATA
 0002:00000340 00000010H .CRT$XPX                DATA
 0002:00000350 00000008H .CRT$XPXA               DATA
 0002:00000358 00000008H .CRT$XPZ                DATA
 0002:00000360 00000008H .CRT$XTA                DATA
 0002:00000368 00000008H .CRT$XTZ                DATA
 0002:00000370 00007a98H .rdata                  DATA
 0002:00007e08 00000000H .rdata$r                DATA
 0002:00007e08 00000340H .rdata$zzzdbg           DATA
 0002:00008148 00000008H .rtc$IAA                DATA
 0002:00008150 00000008H .rtc$IZZ                DATA
 0002:00008158 00000008H .rtc$TAA                DATA
 0002:00008160 00000008H .rtc$TZZ                DATA
 0002:00008168 00000ce8H .xdata                  DATA
 0002:00008e50 00000058H .edata                  DATA
 0002:00008ea8 00000028H .idata$2                DATA
 0002:00008ed0 00000018H .idata$3                DATA
 0002:00008ee8 000002e8H .idata$4                DATA
 0002:000091d0 00000c06H .idata$6                DATA
 0003:00000000 00000940H .data                   DATA
 0003:00000940 00000000H .data$r                 DATA
 0003:00000940 000091e0H .bss                    DATA
 0004:00000000 00000f84H .pdata                  DATA
 0005:00000000 00000080H .gfids$x                DATA
 0005:00000080 00000014H .gfids$y                DATA
 0006:00000000 00000060H .rsrc$01                DATA
 0006:00000060 00000180H .rsrc$02                DATA

  Address         Publics by Value              Rva+Base               Lib:Object

 0000:00000000       __guard_iat_count          0000000000000000     <absolute>
 0000:00000000       __dynamic_value_reloc_table 0000000000000000     <absolute>
 0000:00000000       __guard_iat_table          0000000000000000     <absolute>
 0000:00000000       __guard_longjmp_table      0000000000000000     <absolute>
 0000:00000000       __guard_longjmp_count      0000000000000000     <absolute>
 0000:00000000       __guard_fids_count         0000000000000000     <absolute>
 0000:00000000       ___safe_se_handler_table   0000000000000000     <absolute>
 0000:00000000       ___safe_se_handler_count   0000000000000000     <absolute>
 0000:00000000       __guard_fids_table         0000000000000000     <absolute>
 0000:00000100       __guard_flags              0000000000000100     <absolute>
 0000:00000000       __ImageBase                0000000180000000     <linker-defined>
 0001:00000000       __local_stdio_printf_options 0000000180001000 f i node_crc64_ecma_182.obj
 0001:00000010       sprintf                    0000000180001010 f i node_crc64_ecma_182.obj
 0001:00000140       ?New@?$Factory@VFunctionTemplate@v8@@@imp@Nan@@SA?AV?$Local@VFunctionTemplate@v8@@@v8@@P6AXAEBV?$FunctionCallbackInfo@VValue@v8@@@3@@ZV?$Local@VValue@v8@@@5@V?$Local@VSignature@v8@@@5@@Z 0000000180001140 f i node_crc64_ecma_182.obj
 0001:00000320       ?Export@Nan@@YAXV?$Local@VObject@v8@@@v8@@PEBDP6AXAEBV?$FunctionCallbackInfo@VValue@v8@@@1@@Z@Z 0000000180001320 f i node_crc64_ecma_182.obj
 0001:00000480       ?CRC64@CRC64JS@@YAXAEBV?$FunctionCallbackInfo@VValue@v8@@@Nan@@@Z 0000000180001480 f   node_crc64_ecma_182.obj
 0001:00000620       ?ToUInt64String@CRC64JS@@YAXAEBV?$FunctionCallbackInfo@VValue@v8@@@Nan@@@Z 0000000180001620 f   node_crc64_ecma_182.obj
 0001:00000750       ?Init@CRC64JS@@YAXV?$Local@VObject@v8@@@v8@@@Z 0000000180001750 f   node_crc64_ecma_182.obj
 0001:00000a50       __security_check_cookie    0000000180001a50 f   LIBCMT:_amdsecgs_.obj
 0001:00000dc0       _DllMainCRTStartup         0000000180001dc0 f   LIBCMT:dll_dllmain.obj
 0001:00000e00       __raise_securityfailure    0000000180001e00 f   LIBCMT:gs_report.obj
 0001:00000e34       __report_gsfailure         0000000180001e34 f   LIBCMT:gs_report.obj
 0001:00000f08       __report_rangecheckfailure 0000000180001f08 f   LIBCMT:gs_report.obj
 0001:00000f1c       __report_securityfailure   0000000180001f1c f   LIBCMT:gs_report.obj
 0001:0000109c       __scrt_acquire_startup_lock 000000018000209c f   LIBCMT:utility.obj
 0001:000010d8       __scrt_dllmain_after_initialize_c 00000001800020d8 f   LIBCMT:utility.obj
 0001:0000110c       __scrt_dllmain_before_initialize_c 000000018000210c f   LIBCMT:utility.obj
 0001:00001124       __scrt_dllmain_crt_thread_attach 0000000180002124 f   LIBCMT:utility.obj
 0001:0000114c       __scrt_dllmain_crt_thread_detach 000000018000214c f   LIBCMT:utility.obj
 0001:00001164       __scrt_dllmain_exception_filter 0000000180002164 f   LIBCMT:utility.obj
 0001:000011c8       __scrt_dllmain_uninitialize_c 00000001800021c8 f   LIBCMT:utility.obj
 0001:000011f8       __scrt_dllmain_uninitialize_critical 00000001800021f8 f   LIBCMT:utility.obj
 0001:0000120c       __scrt_initialize_crt      000000018000220c f   LIBCMT:utility.obj
 0001:00001258       __scrt_initialize_onexit_tables 0000000180002258 f   LIBCMT:utility.obj
 0001:00001324       __scrt_is_nonwritable_in_current_image 0000000180002324 f   LIBCMT:utility.obj
 0001:000013c0       __scrt_release_startup_lock 00000001800023c0 f   LIBCMT:utility.obj
 0001:000013e4       __scrt_uninitialize_crt    00000001800023e4 f   LIBCMT:utility.obj
 0001:00001410       _onexit                    0000000180002410 f   LIBCMT:utility.obj
 0001:00001460       atexit                     0000000180002460 f   LIBCMT:utility.obj
 0001:00001478       __security_init_cookie     0000000180002478 f   LIBCMT:gs_support.obj
 0001:00001524       ?__scrt_initialize_type_info@@YAXXZ 0000000180002524 f   LIBCMT:tncleanup.obj
 0001:00001534       ?__scrt_uninitialize_type_info@@YAXXZ 0000000180002534 f   LIBCMT:tncleanup.obj
 0001:00001540       __local_stdio_scanf_options 0000000180002540 f i LIBCMT:default_local_stdio_options.obj
 0001:00001548       __scrt_initialize_default_local_stdio_options 0000000180002548 f   LIBCMT:default_local_stdio_options.obj
 0001:00001564       __scrt_get_dyn_tls_init_callback 0000000180002564 f   LIBCMT:dyn_tls_init.obj
 0001:0000156c       __crt_debugger_hook        000000018000256c f   LIBCMT:utility_desktop.obj
 0001:00001574       __scrt_fastfail            0000000180002574 f   LIBCMT:utility_desktop.obj
 0001:000016bc       _RTC_Initialize            00000001800026bc f   LIBCMT:_initsect_.obj
 0001:00001708       _RTC_Terminate             0000000180002708 f   LIBCMT:_initsect_.obj
 0001:00001754       _guard_check_icall         0000000180002754 f i LIBCMT:checkcfg.obj
 0001:0000175c       __isa_available_init       000000018000275c f   LIBCMT:_cpu_disp_.obj
 0001:00001924       _get_startup_argv_mode     0000000180002924 f   LIBCMT:argv_mode.obj
 0001:00001924       DllMain                    0000000180002924 f   LIBCMT:dll_dllmain_stub.obj
 0001:0000192c       __scrt_is_ucrt_dll_in_use  000000018000292c f   LIBCMT:ucrt_detection.obj
 0001:00001940       __C_specific_handler       0000000180002940 f   libvcruntime:_chandler_.obj
 0001:00001b3c       __vcrt_initialize          0000000180002b3c f   libvcruntime:initialization.obj
 0001:00001b70       __vcrt_thread_attach       0000000180002b70 f   libvcruntime:initialization.obj
 0001:00001b84       __vcrt_thread_detach       0000000180002b84 f   libvcruntime:initialization.obj
 0001:00001b98       __vcrt_uninitialize        0000000180002b98 f   libvcruntime:initialization.obj
 0001:00001bb8       __vcrt_uninitialize_critical 0000000180002bb8 f   libvcruntime:initialization.obj
 0001:00001bc8       __std_type_info_destroy_list 0000000180002bc8 f   libvcruntime:std_type_info.obj
 0001:00001c10       memset                     0000000180002c10 f   libvcruntime:memset.obj
 0001:00001dc0       _local_unwind              0000000180002dc0 f   libvcruntime:_jmpuwind_.obj
 0001:00001df0       _NLG_Notify                0000000180002df0 f   libvcruntime:_jmpuwind_.obj
 0001:00001e10       __NLG_Dispatch2            0000000180002e10 f   libvcruntime:_jmpuwind_.obj
 0001:00001e20       __NLG_Return2              0000000180002e20 f   libvcruntime:_jmpuwind_.obj
 0001:00001e24       __except_validate_context_record 0000000180002e24 f   libvcruntime:jbcxrval.obj
 0001:00001e24       _guard_check_icall_nop     0000000180002e24 f   LIBCMT:guard_support.obj
 0001:00001e28       __vcrt_freefls             0000000180002e28 f   libvcruntime:per_thread_data.obj
 0001:00001e48       __vcrt_freeptd             0000000180002e48 f   libvcruntime:per_thread_data.obj
 0001:00001e98       __vcrt_getptd_noexit       0000000180002e98 f   libvcruntime:per_thread_data.obj
 0001:00001f50       __vcrt_initialize_ptd      0000000180002f50 f   libvcruntime:per_thread_data.obj
 0001:00001f90       __vcrt_uninitialize_ptd    0000000180002f90 f   libvcruntime:per_thread_data.obj
 0001:00001fb4       __vcrt_initialize_locks    0000000180002fb4 f   libvcruntime:locks.obj
 0001:00001ffc       __vcrt_uninitialize_locks  0000000180002ffc f   libvcruntime:locks.obj
 0001:000021fc       __vcrt_FlsAlloc            00000001800031fc f   libvcruntime:winapi_downlevel.obj
 0001:00002250       __vcrt_FlsFree             0000000180003250 f   libvcruntime:winapi_downlevel.obj
 0001:000022a4       __vcrt_FlsGetValue         00000001800032a4 f   libvcruntime:winapi_downlevel.obj
 0001:000022f8       __vcrt_FlsSetValue         00000001800032f8 f   libvcruntime:winapi_downlevel.obj
 0001:00002360       __vcrt_InitializeCriticalSectionEx 0000000180003360 f   libvcruntime:winapi_downlevel.obj
 0001:000023d8       __vcrt_initialize_winapi_thunks 00000001800033d8 f   libvcruntime:winapi_downlevel.obj
 0001:00002424       __vcrt_uninitialize_winapi_thunks 0000000180003424 f   libvcruntime:winapi_downlevel.obj
 0001:00002464       __vcrt_initialize_pure_virtual_call_handler 0000000180003464 f   libvcruntime:purevirt_data.obj
 0001:00002488       ??$ensure_buffer_is_big_enough@D@formatting_buffer@__crt_stdio_output@@QEAA_N_K@Z 0000000180003488 f i libucrt:output.obj
 0001:00002534       ??$is_wide_character_specifier@D@__crt_stdio_output@@YA_N_KDW4length_modifier@0@@Z 0000000180003534 f i libucrt:output.obj
 0001:00002564       ??$type_case_integer_parse_into_buffer@I@?$output_processor@DV?$string_output_adapter@D@__crt_stdio_output@@V?$standard_base@DV?$string_output_adapter@D@__crt_stdio_output@@@2@@__crt_stdio_output@@AEAAXII_N@Z 0000000180003564 f i libucrt:output.obj
 0001:00002600       ??$type_case_integer_parse_into_buffer@_K@?$output_processor@DV?$string_output_adapter@D@__crt_stdio_output@@V?$standard_base@DV?$string_output_adapter@D@__crt_stdio_output@@@2@@__crt_stdio_output@@AEAAX_KI_N@Z 0000000180003600 f i libucrt:output.obj
 0001:0000269c       ??$write_multiple_characters@V?$string_output_adapter@D@__crt_stdio_output@@D@__crt_stdio_output@@YAXAEBV?$string_output_adapter@D@0@DHQEAH@Z 000000018000369c f i libucrt:output.obj
 0001:000026f8       ??0?$output_processor@DV?$string_output_adapter@D@__crt_stdio_output@@V?$standard_base@DV?$string_output_adapter@D@__crt_stdio_output@@@2@@__crt_stdio_output@@QEAA@AEBV?$string_output_adapter@D@1@_KQEBDQEAU__crt_locale_pointers@@QEAD@Z 00000001800036f8 f i libucrt:output.obj
 0001:00002774       ??0_LocaleUpdate@@QEAA@QEAU__crt_locale_pointers@@@Z 0000000180003774 f i libucrt:output.obj
 0001:00002804       ?force_decimal_point@__crt_stdio_output@@YAXPEADQEAU__crt_locale_pointers@@@Z 0000000180003804 f i libucrt:output.obj
 0001:00002874       ?parse_int_from_format_string@?$output_processor@DV?$string_output_adapter@D@__crt_stdio_output@@V?$standard_base@DV?$string_output_adapter@D@__crt_stdio_output@@@2@@__crt_stdio_output@@AEAA_NQEAH@Z 0000000180003874 f i libucrt:output.obj
 0001:000028f8       ?process@?$output_processor@DV?$string_output_adapter@D@__crt_stdio_output@@V?$standard_base@DV?$string_output_adapter@D@__crt_stdio_output@@@2@@__crt_stdio_output@@QEAAHXZ 00000001800038f8 f i libucrt:output.obj
 0001:00002afc       ?state_case_normal@?$output_processor@DV?$string_output_adapter@D@__crt_stdio_output@@V?$standard_base@DV?$string_output_adapter@D@__crt_stdio_output@@@2@@__crt_stdio_output@@AEAA_NXZ 0000000180003afc f i libucrt:output.obj
 0001:00002b70       ?state_case_normal_tchar@?$output_processor@DV?$string_output_adapter@D@__crt_stdio_output@@V?$standard_base@DV?$string_output_adapter@D@__crt_stdio_output@@@2@@__crt_stdio_output@@AEAA_ND@Z 0000000180003b70 f i libucrt:output.obj
 0001:00002c08       ?state_case_size@?$output_processor@DV?$string_output_adapter@D@__crt_stdio_output@@V?$standard_base@DV?$string_output_adapter@D@__crt_stdio_output@@@2@@__crt_stdio_output@@AEAA_NXZ 0000000180003c08 f i libucrt:output.obj
 0001:00002d84       ?state_case_type@?$output_processor@DV?$string_output_adapter@D@__crt_stdio_output@@V?$standard_base@DV?$string_output_adapter@D@__crt_stdio_output@@@2@@__crt_stdio_output@@AEAA_NXZ 0000000180003d84 f i libucrt:output.obj
 0001:00003000       ?type_case_Z@?$output_processor@DV?$string_output_adapter@D@__crt_stdio_output@@V?$standard_base@DV?$string_output_adapter@D@__crt_stdio_output@@@2@@__crt_stdio_output@@AEAA_NXZ 0000000180004000 f i libucrt:output.obj
 0001:00003080       ?type_case_a@?$output_processor@DV?$string_output_adapter@D@__crt_stdio_output@@V?$standard_base@DV?$string_output_adapter@D@__crt_stdio_output@@@2@@__crt_stdio_output@@AEAA_NXZ 0000000180004080 f i libucrt:output.obj
 0001:0000329c       ?type_case_c_tchar@?$output_processor@DV?$string_output_adapter@D@__crt_stdio_output@@V?$standard_base@DV?$string_output_adapter@D@__crt_stdio_output@@@2@@__crt_stdio_output@@AEAA_ND@Z 000000018000429c f i libucrt:output.obj
 0001:00003350       ?type_case_integer@?$output_processor@DV?$string_output_adapter@D@__crt_stdio_output@@V?$standard_base@DV?$string_output_adapter@D@__crt_stdio_output@@@2@@__crt_stdio_output@@AEAA_NI_N@Z 0000000180004350 f i libucrt:output.obj
 0001:000034f0       ?type_case_n@?$output_processor@DV?$string_output_adapter@D@__crt_stdio_output@@V?$standard_base@DV?$string_output_adapter@D@__crt_stdio_output@@@2@@__crt_stdio_output@@AEAA_NXZ 00000001800044f0 f i libucrt:output.obj
 0001:000035cc       ?type_case_s@?$output_processor@DV?$string_output_adapter@D@__crt_stdio_output@@V?$standard_base@DV?$string_output_adapter@D@__crt_stdio_output@@@2@@__crt_stdio_output@@AEAA_NXZ 00000001800045cc f i libucrt:output.obj
 0001:0000365c       ?write_stored_string_tchar@?$output_processor@DV?$string_output_adapter@D@__crt_stdio_output@@V?$standard_base@DV?$string_output_adapter@D@__crt_stdio_output@@@2@@__crt_stdio_output@@AEAA_ND@Z 000000018000465c f i libucrt:output.obj
 0001:00003734       ?write_string@?$string_output_adapter@D@__crt_stdio_output@@QEBAXQEBDHQEAH1@Z 0000000180004734 f i libucrt:output.obj
 0001:000037f0       __stdio_common_vsprintf    00000001800047f0 f   libucrt:output.obj
 0001:00003a24       _initterm                  0000000180004a24 f   libucrt:initterm.obj
 0001:00003a9c       _initterm_e                0000000180004a9c f   libucrt:initterm.obj
 0001:00003ae8       _seh_filter_dll            0000000180004ae8 f   libucrt:exception_filter.obj
 0001:00003afc       _seh_filter_exe            0000000180004afc f   libucrt:exception_filter.obj
 0001:00003ebc       __acrt_initialize_thread_local_exit_callback 0000000180004ebc f   libucrt:exit.obj
 0001:00003ec4       _cexit                     0000000180004ec4 f   libucrt:exit.obj
 0001:00003ed4       _exit                      0000000180004ed4 f   libucrt:exit.obj
 0001:00003ee0       _is_c_termination_complete 0000000180004ee0 f   libucrt:exit.obj
 0001:000040a4       __acrt_allocate_buffer_for_argv 00000001800050a4 f   libucrt:argv_parsing.obj
 0001:00004108       _configure_narrow_argv     0000000180005108 f   libucrt:argv_parsing.obj
 0001:00004464       __dcrt_uninitialize_environments_nolock 0000000180005464 f   libucrt:environment_initialization.obj
 0001:0000449c       _initialize_narrow_environment 000000018000549c f   libucrt:environment_initialization.obj
 0001:000044a4       ??$?RV<lambda_b8c45f8f788dd370798f47cfe8ac3a86>@@AEAV<lambda_4e60a939b0d047cfe11ddc22648dfba9>@@V<lambda_332c3edc96d0294ec56c57d38c1cdfd5>@@@?$__crt_seh_guarded_call@H@@QEAAH$$QEAV<lambda_b8c45f8f788dd370798f47cfe8ac3a86>@@AEAV<lambda_4e60a939b0d047cfe11ddc22648dfba9>@@$$QEAV<lambda_332c3edc96d0294ec56c57d38c1cdfd5>@@@Z 00000001800054a4 f i libucrt:onexit.obj
 0001:000044e0       ??$?RV<lambda_e24bbb7b643b32fcea6fa61b31d4c984>@@AEAV<lambda_275893d493268fdec8709772e3fcec0e>@@V<lambda_9d71df4d7cf3f480f8d633942495c3b0>@@@?$__crt_seh_guarded_call@H@@QEAAH$$QEAV<lambda_e24bbb7b643b32fcea6fa61b31d4c984>@@AEAV<lambda_275893d493268fdec8709772e3fcec0e>@@$$QEAV<lambda_9d71df4d7cf3f480f8d633942495c3b0>@@@Z 00000001800054e0 f i libucrt:onexit.obj
 0001:0000485c       _crt_atexit                000000018000585c f   libucrt:onexit.obj
 0001:0000486c       _execute_onexit_table      000000018000586c f   libucrt:onexit.obj
 0001:000048a8       _initialize_onexit_table   00000001800058a8 f   libucrt:onexit.obj
 0001:000048e8       _register_onexit_function  00000001800058e8 f   libucrt:onexit.obj
 0001:00004a64       __acrt_initialize          0000000180005a64 f   libucrt:initialization.obj
 0001:00004a78       __acrt_thread_attach       0000000180005a78 f   libucrt:initialization.obj
 0001:00004a8c       __acrt_thread_detach       0000000180005a8c f   libucrt:initialization.obj
 0001:00004a9c       __acrt_uninitialize        0000000180005a9c f   libucrt:initialization.obj
 0001:00004ab0       __acrt_uninitialize_critical 0000000180005ab0 f   libucrt:initialization.obj
 0001:00004ac0       terminate                  0000000180005ac0 f   libucrt:terminate.obj
 0001:00004ae8       _free_base                 0000000180005ae8 f   libucrt:free_base.obj
 0001:00004b28       _malloc_base               0000000180005b28 f   libucrt:malloc_base.obj
 0001:00004b88       strcpy_s                   0000000180005b88 f   libucrt:strcpy_s.obj
 0001:00004be8       abort                      0000000180005be8 f   libucrt:abort.obj
 0001:00004c40       _calloc_base               0000000180005c40 f   libucrt:calloc_base.obj
 0001:00004cb8       ??$is_overflow_condition@K@__crt_strtox@@YA_NIK@Z 0000000180005cb8 f i libucrt:atox.obj
 0001:00004ce4       ??$parse_integer@KV?$c_string_character_source@D@__crt_strtox@@@__crt_strtox@@YAKQEAU__crt_locale_pointers@@V?$c_string_character_source@D@0@H_N@Z 0000000180005ce4 f i libucrt:atox.obj
 0001:00004ff8       __acrt_call_reportfault    0000000180005ff8 f   libucrt:invalid_parameter.obj
 0001:00005154       __acrt_initialize_invalid_parameter_handler 0000000180006154 f   libucrt:invalid_parameter.obj
 0001:0000515c       _invalid_parameter         000000018000615c f   libucrt:invalid_parameter.obj
 0001:00005204       _invalid_parameter_noinfo  0000000180006204 f   libucrt:invalid_parameter.obj
 0001:00005224       _invoke_watson             0000000180006224 f   libucrt:invalid_parameter.obj
 0001:0000526c       isdigit                    000000018000626c f i libucrt:_ctype.obj
 0001:00005330       _tolower_l                 0000000180006330 f   libucrt:tolower_toupper.obj
 0001:00005470       tolower                    0000000180006470 f   libucrt:tolower_toupper.obj
 0001:0000549c       __acrt_errno_from_os_error 000000018000649c f   libucrt:errno.obj
 0001:000054e4       __acrt_errno_map_os_error  00000001800064e4 f   libucrt:errno.obj
 0001:00005534       __doserrno                 0000000180006534 f   libucrt:errno.obj
 0001:00005554       _errno                     0000000180006554 f   libucrt:errno.obj
 0001:00005574       ??$make_c_string_character_source@DPEAPEAD@__crt_strtox@@YA?AV?$c_string_character_source@D@0@QEBDQEAPEAD@Z 0000000180006574 f i libucrt:strtox.obj
 0001:00005588       strtol                     0000000180006588 f   libucrt:strtox.obj
 0001:000055b8       _mbtowc_l                  00000001800065b8 f   libucrt:mbtowc.obj
 0001:00005700       mbtowc                     0000000180006700 f   libucrt:mbtowc.obj
 0001:00005708       _wctomb_s_l                0000000180006708 f   libucrt:wctomb.obj
 0001:0000588c       wctomb_s                   000000018000688c f   libucrt:wctomb.obj
 0001:000058a0       strnlen                    00000001800068a0 f   libucrt:strnlen.obj
 0001:000059fc       wcsnlen                    00000001800069fc f   libucrt:strnlen.obj
 0001:00005bec       ??$?RV<lambda_46352004c1216016012b18bd6f87e700>@@AEAV<lambda_3bd07e1a1191394380780325891bf33f>@@V<lambda_334532d3f185bcaa59b5be82d7d22bff>@@@?$__crt_seh_guarded_call@X@@QEAAX$$QEAV<lambda_46352004c1216016012b18bd6f87e700>@@AEAV<lambda_3bd07e1a1191394380780325891bf33f>@@$$QEAV<lambda_334532d3f185bcaa59b5be82d7d22bff>@@@Z 0000000180006bec f i libucrt:per_thread_data.obj
 0001:00005c4c       ??$?RV<lambda_5e887d1dcbef67a5eb4283622ba103bf>@@AEAV<lambda_4466841279450cc726390878d4a41900>@@V<lambda_341c25c0346d94847f1f3c463c57e077>@@@?$__crt_seh_guarded_call@X@@QEAAX$$QEAV<lambda_5e887d1dcbef67a5eb4283622ba103bf>@@AEAV<lambda_4466841279450cc726390878d4a41900>@@$$QEAV<lambda_341c25c0346d94847f1f3c463c57e077>@@@Z 0000000180006c4c f i libucrt:per_thread_data.obj
 0001:00005c94       ??$?RV<lambda_72d1df2b273a38828b1ce30cbf4cdab5>@@AEAV<lambda_876a65b173b8412d3a47c70a915b0cf4>@@V<lambda_41932305e351933ebe8f8be3ed8bb5dc>@@@?$__crt_seh_guarded_call@X@@QEAAX$$QEAV<lambda_72d1df2b273a38828b1ce30cbf4cdab5>@@AEAV<lambda_876a65b173b8412d3a47c70a915b0cf4>@@$$QEAV<lambda_41932305e351933ebe8f8be3ed8bb5dc>@@@Z 0000000180006c94 f i libucrt:per_thread_data.obj
 0001:00005cd4       ??$?RV<lambda_fb3a7dec4e47f37f22dae91bb15c9095>@@AEAV<lambda_698284760c8add0bfb0756c19673e34b>@@V<lambda_dfb8eca1e75fef3034a8fb18dd509707>@@@?$__crt_seh_guarded_call@X@@QEAAX$$QEAV<lambda_fb3a7dec4e47f37f22dae91bb15c9095>@@AEAV<lambda_698284760c8add0bfb0756c19673e34b>@@$$QEAV<lambda_dfb8eca1e75fef3034a8fb18dd509707>@@@Z 0000000180006cd4 f i libucrt:per_thread_data.obj
 0001:00005f64       __acrt_freeptd             0000000180006f64 f   libucrt:per_thread_data.obj
 0001:00005fa8       __acrt_getptd              0000000180006fa8 f   libucrt:per_thread_data.obj
 0001:0000603c       __acrt_getptd_noexit       000000018000703c f   libucrt:per_thread_data.obj
 0001:000060dc       __acrt_initialize_ptd      00000001800070dc f   libucrt:per_thread_data.obj
 0001:00006118       __acrt_uninitialize_ptd    0000000180007118 f   libucrt:per_thread_data.obj
 0001:0000613c       __acrt_update_locale_info  000000018000713c f   libucrt:locale_update.obj
 0001:00006170       __acrt_update_multibyte_info 0000000180007170 f   libucrt:locale_update.obj
 0001:000061a4       ?__acrt_fp_classify@@YA?AW4__acrt_fp_class@@AEBN@Z 00000001800071a4 f i libucrt:cvt.obj
 0001:00006bdc       __acrt_fp_format           0000000180007bdc f   libucrt:cvt.obj
 0001:00006e20       _fileno                    0000000180007e20 f   libucrt:fileno.obj
 0001:00006e48       __acrt_initialize_stdio    0000000180007e48 f   libucrt:_file.obj
 0001:00006f68       __acrt_uninitialize_stdio  0000000180007f68 f   libucrt:_file.obj
 0001:00006fc4       _lock_file                 0000000180007fc4 f   libucrt:_file.obj
 0001:00006fd0       _unlock_file               0000000180007fd0 f   libucrt:_file.obj
 0001:00006fdc       _get_printf_count_output   0000000180007fdc f   libucrt:printf_count_output.obj
 0001:00006ff4       __acrt_set_locale_changed  0000000180007ff4 f   libucrt:wsetlocale.obj
 0001:00007000       __acrt_uninitialize_locale 0000000180008000 f   libucrt:wsetlocale.obj
 0001:00007230       __acrt_initialize_lowio    0000000180008230 f   libucrt:ioinit.obj
 0001:0000726c       __acrt_uninitialize_lowio  000000018000826c f   libucrt:ioinit.obj
 0001:000072ac       _query_app_type            00000001800082ac f   libucrt:report_runtime_error.obj
 0001:000072b4       __acrt_stdio_flush_nolock  00000001800082b4 f   libucrt:fflush.obj
 0001:0000732c       _fflush_nolock             000000018000832c f   libucrt:fflush.obj
 0001:00007378       _flushall                  0000000180008378 f   libucrt:fflush.obj
 0001:00007468       ??$?RV<lambda_c36588078e9f5dfd39652860aa6b3aaf>@@AEAV<lambda_ec61778202f4f5fc7e7711acc23c3bca>@@V<lambda_dc9d2797ccde5d239b4a0efae8ebd7db>@@@?$__crt_seh_guarded_call@P6AXH@Z@@QEAAP6AXH@Z$$QEAV<lambda_c36588078e9f5dfd39652860aa6b3aaf>@@AEAV<lambda_ec61778202f4f5fc7e7711acc23c3bca>@@$$QEAV<lambda_dc9d2797ccde5d239b4a0efae8ebd7db>@@@Z 0000000180008468 f i libucrt:signal.obj
 0001:000074b0       __acrt_get_sigabrt_handler 00000001800084b0 f   libucrt:signal.obj
 0001:000074e0       __acrt_initialize_signal_handlers 00000001800084e0 f   libucrt:signal.obj
 0001:00007500       raise                      0000000180008500 f   libucrt:signal.obj
 0001:0000779c       __acrt_initialize_locks    000000018000879c f   libucrt:locks.obj
 0001:000077e4       __acrt_lock                00000001800087e4 f   libucrt:locks.obj
 0001:00007800       __acrt_uninitialize_locks  0000000180008800 f   libucrt:locks.obj
 0001:00007838       __acrt_unlock              0000000180008838 f   libucrt:locks.obj
 0001:000079f4       __acrt_FlsAlloc            00000001800089f4 f   libucrt:winapi_thunks.obj
 0001:00007a4c       __acrt_FlsFree             0000000180008a4c f   libucrt:winapi_thunks.obj
 0001:00007aa4       __acrt_FlsGetValue         0000000180008aa4 f   libucrt:winapi_thunks.obj
 0001:00007afc       __acrt_FlsSetValue         0000000180008afc f   libucrt:winapi_thunks.obj
 0001:00007b64       __acrt_InitializeCriticalSectionEx 0000000180008b64 f   libucrt:winapi_thunks.obj
 0001:00007bdc       __acrt_LCMapStringEx       0000000180008bdc f   libucrt:winapi_thunks.obj
 0001:00007ccc       __acrt_LocaleNameToLCID    0000000180008ccc f   libucrt:winapi_thunks.obj
 0001:00007d34       __acrt_initialize_winapi_thunks 0000000180008d34 f   libucrt:winapi_thunks.obj
 0001:00007d6c       __acrt_is_packaged_app     0000000180008d6c f   libucrt:winapi_thunks.obj
 0001:00007df4       __acrt_uninitialize_winapi_thunks 0000000180008df4 f   libucrt:winapi_thunks.obj
 0001:00008314       ?expand_if_necessary@?$argument_list@D@?A0xca0879c4@@AEAAHXZ 0000000180009314 f i libucrt:argv_wildcards.obj
 0001:000083dc       __acrt_expand_narrow_argv_wildcards 00000001800093dc f   libucrt:argv_wildcards.obj
 0001:000083e4       ??$?RV<lambda_99476a1ad63dd22509b5d3e65b0ffc95>@@AEAV<lambda_ad1ced32f4ac17aa236e5ef05d6b3b7c>@@V<lambda_f7424dd8d45958661754dc4f2697e9c3>@@@?$__crt_seh_guarded_call@X@@QEAAX$$QEAV<lambda_99476a1ad63dd22509b5d3e65b0ffc95>@@AEAV<lambda_ad1ced32f4ac17aa236e5ef05d6b3b7c>@@$$QEAV<lambda_f7424dd8d45958661754dc4f2697e9c3>@@@Z 00000001800093e4 f i libucrt:mbctype.obj
 0001:00008ae0       __acrt_initialize_multibyte 0000000180009ae0 f   libucrt:mbctype.obj
 0001:00008b08       __acrt_update_thread_multibyte_data 0000000180009b08 f   libucrt:mbctype.obj
 0001:00008bc8       _setmbcp_nolock            0000000180009bc8 f   libucrt:mbctype.obj
 0001:00008ee8       _ismbblead                 0000000180009ee8 f   libucrt:ismbbyte.obj
 0001:00008efc       __acrt_initialize_command_line 0000000180009efc f   libucrt:argv_data.obj
 0001:00008f24       __acrt_uninitialize_command_line 0000000180009f24 f   libucrt:argv_data.obj
 0001:00008f28       __dcrt_get_narrow_environment_from_os 0000000180009f28 f   libucrt:get_environment_from_os.obj
 0001:0000902c       _recalloc                  000000018000a02c f   libucrt:recalloc.obj
 0001:00009034       _recalloc_base             000000018000a034 f   libucrt:recalloc.obj
 0001:000090cc       __acrt_initialize_heap     000000018000a0cc f   libucrt:heap_handle.obj
 0001:000090e8       __acrt_uninitialize_heap   000000018000a0e8 f   libucrt:heap_handle.obj
 0001:000090f4       __acrt_execute_initializers 000000018000a0f4 f   libucrt:shared_initialization.obj
 0001:00009188       __acrt_execute_uninitializers 000000018000a188 f   libucrt:shared_initialization.obj
 0001:000091d8       __acrt_initialize_new_handler 000000018000a1d8 f   libucrt:new_handler.obj
 0001:000091e0       _callnewh                  000000018000a1e0 f   libucrt:new_handler.obj
 0001:00009220       _query_new_handler         000000018000a220 f   libucrt:new_handler.obj
 0001:00009254       __acrt_has_user_matherr    000000018000a254 f   libucrt:matherr.obj
 0001:00009274       __acrt_initialize_user_matherr 000000018000a274 f   libucrt:matherr.obj
 0001:0000927c       __acrt_invoke_user_matherr 000000018000a27c f   libucrt:matherr.obj
 0001:000092c4       _query_new_mode            000000018000a2c4 f   libucrt:new_mode.obj
 0001:000092cc       __pctype_func              000000018000a2cc f   libucrt:ctype.obj
 0001:000092fc       _isctype_l                 000000018000a2fc f   libucrt:isctype.obj
 0001:0000940c       _isleadbyte_l              000000018000a40c f i libucrt:_wctype.obj
 0001:000097a8       __acrt_LCMapStringA        000000018000a7a8 f   libucrt:lcmapstringa.obj
 0001:00009840       __acrt_add_locale_ref      000000018000a840 f   libucrt:locale_refcounting.obj
 0001:000098cc       __acrt_free_locale         000000018000a8cc f   libucrt:locale_refcounting.obj
 0001:00009a44       __acrt_locale_add_lc_time_reference 000000018000aa44 f   libucrt:locale_refcounting.obj
 0001:00009a6c       __acrt_locale_free_lc_time_if_unreferenced 000000018000aa6c f   libucrt:locale_refcounting.obj
 0001:00009aa4       __acrt_locale_release_lc_time_reference 000000018000aaa4 f   libucrt:locale_refcounting.obj
 0001:00009acc       __acrt_release_locale_ref  000000018000aacc f   libucrt:locale_refcounting.obj
 0001:00009b74       __acrt_update_thread_locale_data 000000018000ab74 f   libucrt:locale_refcounting.obj
 0001:00009be4       _updatetlocinfoEx_nolock   000000018000abe4 f   libucrt:locale_refcounting.obj
 0001:00009c4c       __acrt_fp_strflt_to_string 000000018000ac4c f   libucrt:_fptostr.obj
 0001:00009d10       ?divide@__crt_strtox@@YA_KAEAUbig_integer@1@AEBU21@@Z 000000018000ad10 f i libucrt:cfout.obj
 0001:0000a1e0       __acrt_fltout              000000018000b1e0 f   libucrt:cfout.obj
 0001:0000b5d4       _fcloseall                 000000018000c5d4 f   libucrt:closeall.obj
 0001:0000b688       __acrt_stdio_free_buffer_nolock 000000018000c688 f   libucrt:_freebuf.obj
 0001:0000b6c8       _isatty                    000000018000c6c8 f   libucrt:isatty.obj
 0001:0000b728       __acrt_locale_free_monetary 000000018000c728 f   libucrt:initmon.obj
 0001:0000b834       __acrt_locale_free_numeric 000000018000c834 f   libucrt:initnum.obj
 0001:0000b8f8       __acrt_locale_free_time    000000018000c8f8 f   libucrt:inittime.obj
 0001:0000ba00       __acrt_GetStringTypeA      000000018000ca00 f   libucrt:getstringtypea.obj
 0001:0000bbb4       __acrt_lowio_create_handle_array 000000018000cbb4 f   libucrt:osfinfo.obj
 0001:0000bc4c       __acrt_lowio_destroy_handle_array 000000018000cc4c f   libucrt:osfinfo.obj
 0001:0000bc9c       __acrt_lowio_ensure_fh_exists 000000018000cc9c f   libucrt:osfinfo.obj
 0001:0000bd54       __acrt_lowio_lock_fh       000000018000cd54 f   libucrt:osfinfo.obj
 0001:0000bd78       __acrt_lowio_unlock_fh     000000018000cd78 f   libucrt:osfinfo.obj
 0001:0000bd9c       _free_osfhnd               000000018000cd9c f   libucrt:osfinfo.obj
 0001:0000be58       _get_osfhandle             000000018000ce58 f   libucrt:osfinfo.obj
 0001:0000bed0       ??$?RV<lambda_b521505b218e5242e90febf6bfebc422>@@AEAV<lambda_6978c1fb23f02e42e1d9e99668cc68aa>@@V<lambda_314360699dd331753a4119843814e9a7>@@@?$__crt_seh_guarded_call@H@@QEAAH$$QEAV<lambda_b521505b218e5242e90febf6bfebc422>@@AEAV<lambda_6978c1fb23f02e42e1d9e99668cc68aa>@@$$QEAV<lambda_314360699dd331753a4119843814e9a7>@@@Z 000000018000ced0 f i libucrt:commit.obj
 0001:0000bf5c       _commit                    000000018000cf5c f   libucrt:commit.obj
 0001:0000c590       _write                     000000018000d590 f   libucrt:write.obj
 0001:0000c67c       _write_nolock              000000018000d67c f   libucrt:write.obj
 0001:0000ca28       __acrt_DownlevelLocaleNameToLCID 000000018000da28 f   libucrt:lcidtoname_downlevel.obj
 0001:0000cb30       qsort                      000000018000db30 f   libucrt:qsort.obj
 0001:0000ce64       strncpy_s                  000000018000de64 f   libucrt:strncpy_s.obj
 0001:0000cf38       strpbrk                    000000018000df38 f   libucrt:strpbrk.obj
 0001:0000cfd8       _mbsdec                    000000018000dfd8 f   libucrt:mbsdec.obj
 0001:0000cfe0       _mbsdec_l                  000000018000dfe0 f   libucrt:mbsdec.obj
 0001:0000d090       _msize                     000000018000e090 f   libucrt:msize.obj
 0001:0000d0cc       _realloc_base              000000018000e0cc f   libucrt:realloc_base.obj
 0001:0000d150       __strncnt                  000000018000e150 f   libucrt:strncnt.obj
 0001:0000d168       fegetenv                   000000018000e168 f   libucrt:fegetenv.obj
 0001:0000d188       fesetenv                   000000018000e188 f   libucrt:fesetenv.obj
 0001:0000d1d4       feholdexcept               000000018000e1d4 f   libucrt:feholdexcept.obj
 0001:0000d224       ceil                       000000018000e224 f   libucrt:ceil.obj
 0001:0000d2f0       log10                      000000018000e2f0 f   libucrt:log10.obj
 0001:0000d938       _lseeki64_nolock           000000018000e938 f   libucrt:lseek.obj
 0001:0000d940       _fclose_nolock             000000018000e940 f   libucrt:fclose.obj
 0001:0000d9c4       fclose                     000000018000e9c4 f   libucrt:fclose.obj
 0001:0000da30       _putwch_nolock             000000018000ea30 f   libucrt:putwch.obj
 0001:0000da8c       _getfpcontrolword          000000018000ea8c f   libucrt:_fenvutils.obj
 0001:0000daa4       _getfpstatusword           000000018000eaa4 f   libucrt:_fenvutils.obj
 0001:0000dab8       _setfpcontrolword          000000018000eab8 f   libucrt:_fenvutils.obj
 0001:0000dac4       _setfpstatusword           000000018000eac4 f   libucrt:_fenvutils.obj
 0001:0000db14       _clearfp                   000000018000eb14 f   libucrt:ieee.obj
 0001:0000db68       _controlfp                 000000018000eb68 f   libucrt:ieee.obj
 0001:0000db74       _statusfp                  000000018000eb74 f   libucrt:ieee.obj
 0001:0000df78       _handle_error              000000018000ef78 f   libucrt:libm_error.obj
 0001:0000e0a0       _handle_nan                000000018000f0a0 f   libucrt:libm_error.obj
 0001:0000e0c0       __acrt_initialize_fma3     000000018000f0c0 f   libucrt:fma3_available.obj
 0001:0000e130       _log10_special             000000018000f130 f   libucrt:log_special.obj
 0001:0000e1e8       ??$?RV<lambda_bfedae4ebbf01fab1bb6dcc6a9e276e0>@@AEAV<lambda_2fe9b910cf3cbf4a0ab98a02ba45b3ec>@@V<lambda_237c231691f317818eb88cc1d5d642d6>@@@?$__crt_seh_guarded_call@H@@QEAAH$$QEAV<lambda_bfedae4ebbf01fab1bb6dcc6a9e276e0>@@AEAV<lambda_2fe9b910cf3cbf4a0ab98a02ba45b3ec>@@$$QEAV<lambda_237c231691f317818eb88cc1d5d642d6>@@@Z 000000018000f1e8 f i libucrt:close.obj
 0001:0000e25c       _close                     000000018000f25c f   libucrt:close.obj
 0001:0000e300       _close_nolock              000000018000f300 f   libucrt:close.obj
 0001:0000e3bc       ?__acrt_stdio_free_stream@@YAXV__crt_stdio_stream@@@Z 000000018000f3bc f   libucrt:stream.obj
 0001:0000e400       __dcrt_lowio_initialize_console_output 000000018000f400 f   libucrt:initcon.obj
 0001:0000e43c       __dcrt_terminate_console_output 000000018000f43c f   libucrt:initcon.obj
 0001:0000e470       _get_fpsr                  000000018000f470 f   libucrt:fpsr.obj
 0001:0000e480       _set_fpsr                  000000018000f480 f   libucrt:fpsr.obj
 0001:0000e48a       _fclrf                     000000018000f48a f   libucrt:fpsr.obj
 0001:0000e49e       _frnd                      000000018000f49e f   libucrt:fpsr.obj
 0001:0000e4c0       _raise_exc                 000000018000f4c0 f   libucrt:fpexcept.obj
 0001:0000e4e8       _raise_exc_ex              000000018000f4e8 f   libucrt:fpexcept.obj
 0001:0000e7f0       _set_errno_from_matherr    000000018000f7f0 f   libucrt:fpexcept.obj
 0001:0000e820       _clrfp                     000000018000f820 f   libucrt:fpctrl.obj
 0001:0000e840       _ctrlfp                    000000018000f840 f   libucrt:fpctrl.obj
 0001:0000e8bc       _set_statfp                000000018000f8bc f   libucrt:fpctrl.obj
 0001:0000e8dc       _statfp                    000000018000f8dc f   libucrt:fpctrl.obj
 0001:0000e8ee       IsProcessorFeaturePresent  000000018000f8ee f   kernel32:KERNEL32.dll
 0001:0000e8f4       RtlUnwindEx                000000018000f8f4 f   kernel32:KERNEL32.dll
 0001:0000e900       _FindPESection             000000018000f900 f   LIBCMT:pesect.obj
 0001:0000e950       _IsNonwritableInCurrentImage 000000018000f950 f   LIBCMT:pesect.obj
 0001:0000e9a0       _ValidateImageBase         000000018000f9a0 f   LIBCMT:pesect.obj
 0001:0000e9d0       __GSHandlerCheck           000000018000f9d0 f   LIBCMT:_gshandler_.obj
 0001:0000e9f0       __GSHandlerCheckCommon     000000018000f9f0 f   LIBCMT:_gshandler_.obj
 0001:0000ea60       _alloca_probe              000000018000fa60 f   LIBCMT:_chkstk_.obj
 0001:0000ea60       __chkstk                   000000018000fa60 f   LIBCMT:_chkstk_.obj
 0001:0000ead0       memcpy                     000000018000fad0 f   libvcruntime:memcpy.obj
 0001:0000ead0       memmove                    000000018000fad0 f   libvcruntime:memcpy.obj
 0001:0000ef08       strrchr                    000000018000ff08 f   libvcruntime:strrchr.obj
 0001:0000f060       memcmp                     0000000180010060 f   libvcruntime:memcmp.obj
 0001:0000f140       _guard_dispatch_icall_nop  0000000180010140 f   LIBCMT:_guard_dispatch_.obj
 0002:00000000       __imp_CreateFileW          0000000180011000     kernel32:KERNEL32.dll
 0002:00000008       __imp_SetFilePointerEx     0000000180011008     kernel32:KERNEL32.dll
 0002:00000010       __imp_HeapReAlloc          0000000180011010     kernel32:KERNEL32.dll
 0002:00000018       __imp_HeapSize             0000000180011018     kernel32:KERNEL32.dll
 0002:00000020       __imp_GetConsoleMode       0000000180011020     kernel32:KERNEL32.dll
 0002:00000028       __imp_GetConsoleCP         0000000180011028     kernel32:KERNEL32.dll
 0002:00000030       __imp_FlushFileBuffers     0000000180011030     kernel32:KERNEL32.dll
 0002:00000038       __imp_SetStdHandle         0000000180011038     kernel32:KERNEL32.dll
 0002:00000040       __imp_GetStringTypeW       0000000180011040     kernel32:KERNEL32.dll
 0002:00000048       __imp_GetProcessHeap       0000000180011048     kernel32:KERNEL32.dll
 0002:00000050       __imp_FreeEnvironmentStringsW 0000000180011050     kernel32:KERNEL32.dll
 0002:00000058       __imp_GetEnvironmentStringsW 0000000180011058     kernel32:KERNEL32.dll
 0002:00000060       __imp_GetCommandLineW      0000000180011060     kernel32:KERNEL32.dll
 0002:00000068       __imp_GetCommandLineA      0000000180011068     kernel32:KERNEL32.dll
 0002:00000070       __imp_GetCPInfo            0000000180011070     kernel32:KERNEL32.dll
 0002:00000078       __imp_GetOEMCP             0000000180011078     kernel32:KERNEL32.dll
 0002:00000080       __imp_IsValidCodePage      0000000180011080     kernel32:KERNEL32.dll
 0002:00000088       __imp_FindNextFileA        0000000180011088     kernel32:KERNEL32.dll
 0002:00000090       __imp_FindFirstFileExA     0000000180011090     kernel32:KERNEL32.dll
 0002:00000098       __imp_FindClose            0000000180011098     kernel32:KERNEL32.dll
 0002:000000a0       __imp_LCMapStringW         00000001800110a0     kernel32:KERNEL32.dll
 0002:000000a8       __imp_RtlCaptureContext    00000001800110a8     kernel32:KERNEL32.dll
 0002:000000b0       __imp_RtlLookupFunctionEntry 00000001800110b0     kernel32:KERNEL32.dll
 0002:000000b8       __imp_RtlVirtualUnwind     00000001800110b8     kernel32:KERNEL32.dll
 0002:000000c0       __imp_UnhandledExceptionFilter 00000001800110c0     kernel32:KERNEL32.dll
 0002:000000c8       __imp_SetUnhandledExceptionFilter 00000001800110c8     kernel32:KERNEL32.dll
 0002:000000d0       __imp_GetCurrentProcess    00000001800110d0     kernel32:KERNEL32.dll
 0002:000000d8       __imp_TerminateProcess     00000001800110d8     kernel32:KERNEL32.dll
 0002:000000e0       __imp_IsProcessorFeaturePresent 00000001800110e0     kernel32:KERNEL32.dll
 0002:000000e8       __imp_QueryPerformanceCounter 00000001800110e8     kernel32:KERNEL32.dll
 0002:000000f0       __imp_GetCurrentProcessId  00000001800110f0     kernel32:KERNEL32.dll
 0002:000000f8       __imp_GetCurrentThreadId   00000001800110f8     kernel32:KERNEL32.dll
 0002:00000100       __imp_GetSystemTimeAsFileTime 0000000180011100     kernel32:KERNEL32.dll
 0002:00000108       __imp_InitializeSListHead  0000000180011108     kernel32:KERNEL32.dll
 0002:00000110       __imp_IsDebuggerPresent    0000000180011110     kernel32:KERNEL32.dll
 0002:00000118       __imp_GetStartupInfoW      0000000180011118     kernel32:KERNEL32.dll
 0002:00000120       __imp_GetModuleHandleW     0000000180011120     kernel32:KERNEL32.dll
 0002:00000128       __imp_RtlUnwindEx          0000000180011128     kernel32:KERNEL32.dll
 0002:00000130       __imp_InterlockedFlushSList 0000000180011130     kernel32:KERNEL32.dll
 0002:00000138       __imp_GetLastError         0000000180011138     kernel32:KERNEL32.dll
 0002:00000140       __imp_SetLastError         0000000180011140     kernel32:KERNEL32.dll
 0002:00000148       __imp_EnterCriticalSection 0000000180011148     kernel32:KERNEL32.dll
 0002:00000150       __imp_LeaveCriticalSection 0000000180011150     kernel32:KERNEL32.dll
 0002:00000158       __imp_DeleteCriticalSection 0000000180011158     kernel32:KERNEL32.dll
 0002:00000160       __imp_InitializeCriticalSectionAndSpinCount 0000000180011160     kernel32:KERNEL32.dll
 0002:00000168       __imp_TlsAlloc             0000000180011168     kernel32:KERNEL32.dll
 0002:00000170       __imp_TlsGetValue          0000000180011170     kernel32:KERNEL32.dll
 0002:00000178       __imp_TlsSetValue          0000000180011178     kernel32:KERNEL32.dll
 0002:00000180       __imp_TlsFree              0000000180011180     kernel32:KERNEL32.dll
 0002:00000188       __imp_FreeLibrary          0000000180011188     kernel32:KERNEL32.dll
 0002:00000190       __imp_GetProcAddress       0000000180011190     kernel32:KERNEL32.dll
 0002:00000198       __imp_LoadLibraryExW       0000000180011198     kernel32:KERNEL32.dll
 0002:000001a0       __imp_GetStdHandle         00000001800111a0     kernel32:KERNEL32.dll
 0002:000001a8       __imp_GetFileType          00000001800111a8     kernel32:KERNEL32.dll
 0002:000001b0       __imp_GetModuleFileNameA   00000001800111b0     kernel32:KERNEL32.dll
 0002:000001b8       __imp_GetModuleHandleExW   00000001800111b8     kernel32:KERNEL32.dll
 0002:000001c0       __imp_WriteConsoleW        00000001800111c0     kernel32:KERNEL32.dll
 0002:000001c8       __imp_ExitProcess          00000001800111c8     kernel32:KERNEL32.dll
 0002:000001d0       __imp_MultiByteToWideChar  00000001800111d0     kernel32:KERNEL32.dll
 0002:000001d8       __imp_WideCharToMultiByte  00000001800111d8     kernel32:KERNEL32.dll
 0002:000001e0       __imp_HeapFree             00000001800111e0     kernel32:KERNEL32.dll
 0002:000001e8       __imp_HeapAlloc            00000001800111e8     kernel32:KERNEL32.dll
 0002:000001f0       __imp_GetACP               00000001800111f0     kernel32:KERNEL32.dll
 0002:000001f8       __imp_WriteFile            00000001800111f8     kernel32:KERNEL32.dll
 0002:00000200       __imp_CloseHandle          0000000180011200     kernel32:KERNEL32.dll
 0002:00000208       __imp_RaiseException       0000000180011208     kernel32:KERNEL32.dll
 0002:00000210       \177KERNEL32_NULL_THUNK_DATA 0000000180011210     kernel32:KERNEL32.dll
 0002:00000218       __imp_?Length@Buffer@node@@YA_KV?$Local@VObject@v8@@@v8@@@Z 0000000180011218     iojs:node.dll
 0002:00000220       __imp_?Copy@Buffer@node@@YA?AV?$MaybeLocal@VObject@v8@@@v8@@PEAVIsolate@4@PEBD_K@Z 0000000180011220     iojs:node.dll
 0002:00000228       __imp_?Data@Buffer@node@@YAPEADV?$Local@VObject@v8@@@v8@@@Z 0000000180011228     iojs:node.dll
 0002:00000230       __imp_node_module_register 0000000180011230     iojs:node.dll
 0002:00000238       __imp_?New@ObjectTemplate@v8@@SA?AV?$Local@VObjectTemplate@v8@@@2@PEAVIsolate@2@V?$Local@VFunctionTemplate@v8@@@2@@Z 0000000180011238     iojs:node.dll
 0002:00000240       __imp_?NewInstance@ObjectTemplate@v8@@QEAA?AV?$MaybeLocal@VObject@v8@@@2@V?$Local@VContext@v8@@@2@@Z 0000000180011240     iojs:node.dll
 0002:00000248       __imp_?SetInternalFieldCount@ObjectTemplate@v8@@QEAAXH@Z 0000000180011248     iojs:node.dll
 0002:00000250       __imp_?Set@Object@v8@@QEAA?AV?$Maybe@_N@2@V?$Local@VContext@v8@@@2@V?$Local@VValue@v8@@@2@1@Z 0000000180011250     iojs:node.dll
 0002:00000258       __imp_?SetInternalField@Object@v8@@QEAAXHV?$Local@VValue@v8@@@2@@Z 0000000180011258     iojs:node.dll
 0002:00000260       __imp_?SlowGetInternalField@Object@v8@@AEAA?AV?$Local@VValue@v8@@@2@H@Z 0000000180011260     iojs:node.dll
 0002:00000268       __imp_?NewFromUtf8@String@v8@@SA?AV?$MaybeLocal@VString@v8@@@2@PEAVIsolate@2@PEBDW4NewStringType@2@H@Z 0000000180011268     iojs:node.dll
 0002:00000270       __imp_??0EscapableHandleScope@v8@@QEAA@PEAVIsolate@1@@Z 0000000180011270     iojs:node.dll
 0002:00000278       __imp_?Escape@EscapableHandleScope@v8@@AEAAPEAPEAVObject@internal@2@PEAPEAV342@@Z 0000000180011278     iojs:node.dll
 0002:00000280       __imp_?ToObject@Value@v8@@QEBA?AV?$MaybeLocal@VObject@v8@@@2@V?$Local@VContext@v8@@@2@@Z 0000000180011280     iojs:node.dll
 0002:00000288       __imp_?ToLocalEmpty@V8@v8@@CAXXZ 0000000180011288     iojs:node.dll
 0002:00000290       __imp_?New@FunctionTemplate@v8@@SA?AV?$Local@VFunctionTemplate@v8@@@2@PEAVIsolate@2@P6AXAEBV?$FunctionCallbackInfo@VValue@v8@@@2@@ZV?$Local@VValue@v8@@@2@V?$Local@VSignature@v8@@@2@HW4ConstructorBehavior@2@@Z 0000000180011290     iojs:node.dll
 0002:00000298       __imp_?GetFunction@FunctionTemplate@v8@@QEAA?AV?$MaybeLocal@VFunction@v8@@@2@V?$Local@VContext@v8@@@2@@Z 0000000180011298     iojs:node.dll
 0002:000002a0       __imp_??0HandleScope@v8@@QEAA@PEAVIsolate@1@@Z 00000001800112a0     iojs:node.dll
 0002:000002a8       __imp_??1HandleScope@v8@@QEAA@XZ 00000001800112a8     iojs:node.dll
 0002:000002b0       __imp_?CreateHandle@HandleScope@v8@@CAPEAPEAVObject@internal@2@PEAVHeapObject@42@PEAV342@@Z 00000001800112b0     iojs:node.dll
 0002:000002b8       __imp_?CreateHandle@HandleScope@v8@@KAPEAPEAVObject@internal@2@PEAVIsolate@42@PEAV342@@Z 00000001800112b8     iojs:node.dll
 0002:000002c0       __imp_?GetCurrent@Isolate@v8@@SAPEAV12@XZ 00000001800112c0     iojs:node.dll
 0002:000002c8       __imp_?GetCurrentContext@Isolate@v8@@QEAA?AV?$Local@VContext@v8@@@2@XZ 00000001800112c8     iojs:node.dll
 0002:000002d0       __imp_?New@External@v8@@SA?AV?$Local@VExternal@v8@@@2@PEAVIsolate@2@PEAX@Z 00000001800112d0     iojs:node.dll
 0002:000002d8       __imp_?Value@External@v8@@QEBAPEAXXZ 00000001800112d8     iojs:node.dll
 0002:000002e0       \177node_NULL_THUNK_DATA   00000001800112e0     iojs:node.dll
 0002:000002e8       __guard_check_icall_fptr   00000001800112e8     LIBCMT:guard_support.obj
 0002:000002f0       __guard_dispatch_icall_fptr 00000001800112f0     LIBCMT:guard_support.obj
 0002:000002f8       __xc_a                     00000001800112f8     LIBCMT:initializers.obj
 0002:00000300       _register_crc64_           0000000180011300     node_crc64_ecma_182.obj
 0002:00000308       __xc_z                     0000000180011308     LIBCMT:initializers.obj
 0002:00000310       __xi_a                     0000000180011310     LIBCMT:initializers.obj
 0002:00000318       __acrt_stdio_initializer   0000000180011318     libucrt:stdio_initializer.obj
 0002:00000320       __acrt_multibyte_initializer 0000000180011320     libucrt:multibyte_initializer.obj
 0002:00000328       __acrt_tran_fma3_initializer 0000000180011328     libucrt:fma3_initializer.obj
 0002:00000330       __xi_z                     0000000180011330     LIBCMT:initializers.obj
 0002:00000338       __xp_a                     0000000180011338     LIBCMT:initializers.obj
 0002:00000340       __acrt_locale_terminator   0000000180011340     libucrt:locale_initializer.obj
 0002:00000348       __dcrt_console_output_terminator 0000000180011348     libucrt:console_output_initializer.obj
 0002:00000350       __acrt_stdio_terminator    0000000180011350     libucrt:stdio_initializer.obj
 0002:00000358       __xp_z                     0000000180011358     LIBCMT:initializers.obj
 0002:00000360       __xt_a                     0000000180011360     LIBCMT:initializers.obj
 0002:00000368       __xt_z                     0000000180011368     LIBCMT:initializers.obj
 0002:00000370       _pDefaultRawDllMain        0000000180011370     LIBCMT:dll_dllmain.obj
 0002:00000370       _pRawDllMain               0000000180011370     LIBCMT:dll_dllmain.obj
 0002:000003a8       ??_C@_1BC@DNHGCMLG@?$AAa?$AAd?$AAv?$AAa?$AAp?$AAi?$AA3?$AA2?$AA?$AA@ 00000001800113a8     libvcruntime:winapi_downlevel.obj
 0002:000003c0       ??_C@_1DM@KHCHBNEB@?$AAa?$AAp?$AAi?$AA?9?$AAm?$AAs?$AA?9?$AAw?$AAi?$AAn?$AA?9?$AAc?$AAo?$AAr?$AAe?$AA?9?$AAf?$AAi?$AAb?$AAe?$AAr?$AAs?$AA?9?$AAl?$AA1?$AA?9?$AA1?$AA?9?$AA1?$AA?$AA@ 00000001800113c0     libvcruntime:winapi_downlevel.obj
 0002:00000400       ??_C@_1DK@LPPGFMPP@?$AAa?$AAp?$AAi?$AA?9?$AAm?$AAs?$AA?9?$AAw?$AAi?$AAn?$AA?9?$AAc?$AAo?$AAr?$AAe?$AA?9?$AAs?$AAy?$AAn?$AAc?$AAh?$AA?9?$AAl?$AA1?$AA?9?$AA2?$AA?9?$AA0?$AA?$AA@ 0000000180011400     libvcruntime:winapi_downlevel.obj
 0002:00000440       ??_C@_1BC@GDMECMAK@?$AAk?$AAe?$AAr?$AAn?$AAe?$AAl?$AA3?$AA2?$AA?$AA@ 0000000180011440     libvcruntime:winapi_downlevel.obj
 0002:00000460       ??_C@_08KNHFBNJ@FlsAlloc?$AA@ 0000000180011460     libvcruntime:winapi_downlevel.obj
 0002:00000478       ??_C@_07PEJMOBNF@FlsFree?$AA@ 0000000180011478     libvcruntime:winapi_downlevel.obj
 0002:00000488       ??_C@_0M@GDNOONDI@FlsGetValue?$AA@ 0000000180011488     libvcruntime:winapi_downlevel.obj
 0002:000004a0       ??_C@_0M@JCPCPOEF@FlsSetValue?$AA@ 00000001800114a0     libvcruntime:winapi_downlevel.obj
 0002:000004b8       ??_C@_0BM@HCFOFFN@InitializeCriticalSectionEx?$AA@ 00000001800114b8     libvcruntime:winapi_downlevel.obj
 0002:00000800       ??_C@_08EHJDFFNH@__based?$CI?$AA@ 0000000180011800     libvcruntime:undname.obj
 0002:00000810       ??_C@_07KOLFKCDI@__cdecl?$AA@ 0000000180011810     libvcruntime:undname.obj
 0002:00000818       ??_C@_08GHMPAG@__pascal?$AA@ 0000000180011818     libvcruntime:undname.obj
 0002:00000828       ??_C@_09IFJBGAPI@__stdcall?$AA@ 0000000180011828     libvcruntime:undname.obj
 0002:00000838       ??_C@_0L@NPHFGOKO@__thiscall?$AA@ 0000000180011838     libvcruntime:undname.obj
 0002:00000848       ??_C@_0L@JMKHOMEK@__fastcall?$AA@ 0000000180011848     libvcruntime:undname.obj
 0002:00000858       ??_C@_0N@BCKKPABJ@__vectorcall?$AA@ 0000000180011858     libvcruntime:undname.obj
 0002:00000868       ??_C@_09HIJEGCPM@__clrcall?$AA@ 0000000180011868     libvcruntime:undname.obj
 0002:00000874       ??_C@_06GHPCKEAG@__eabi?$AA@ 0000000180011874     libvcruntime:undname.obj
 0002:00000880       ??_C@_07JOMMBBKO@__ptr64?$AA@ 0000000180011880     libvcruntime:undname.obj
 0002:00000888       ??_C@_0L@PILCLIHE@__restrict?$AA@ 0000000180011888     libvcruntime:undname.obj
 0002:00000898       ??_C@_0M@GFIIJFMG@__unaligned?$AA@ 0000000180011898     libvcruntime:undname.obj
 0002:000008a8       ??_C@_09DHDLOLLB@restrict?$CI?$AA@ 00000001800118a8     libvcruntime:undname.obj
 0002:000008b2       ??_C@_00CNPNBAHC@?$AA@     00000001800118b2     libvcruntime:undname.obj
 0002:000008b4       ??_C@_04NIHEBCM@?5new?$AA@ 00000001800118b4     libvcruntime:undname.obj
 0002:000008c0       ??_C@_07FPCDHGMM@?5delete?$AA@ 00000001800118c0     libvcruntime:undname.obj
 0002:000008c8       ??_C@_01NEMOKFLO@?$DN?$AA@ 00000001800118c8     libvcruntime:undname.obj
 0002:000008cc       ??_C@_02GPIOPFAK@?$DO?$DO?$AA@ 00000001800118cc     libvcruntime:undname.obj
 0002:000008d0       ??_C@_02FODMEDOG@?$DM?$DM?$AA@ 00000001800118d0     libvcruntime:undname.obj
 0002:000008d4       ??_C@_01DCLJPIOD@?$CB?$AA@ 00000001800118d4     libvcruntime:undname.obj
 0002:000008d8       ??_C@_02EGOFBIJA@?$DN?$DN?$AA@ 00000001800118d8     libvcruntime:undname.obj
 0002:000008dc       ??_C@_02FDNJECIE@?$CB?$DN?$AA@ 00000001800118dc     libvcruntime:undname.obj
 0002:000008e0       ??_C@_02GPECMEKF@?$FL?$FN?$AA@ 00000001800118e0     libvcruntime:undname.obj
 0002:000008e8       ??_C@_08LHJFAFGD@operator?$AA@ 00000001800118e8     libvcruntime:undname.obj
 0002:000008f4       ??_C@_02HBOOOICD@?9?$DO?$AA@ 00000001800118f4     libvcruntime:undname.obj
 0002:000008f8       ??_C@_01NBENCBCI@?$CK?$AA@ 00000001800118f8     libvcruntime:undname.obj
 0002:000008fc       ??_C@_02ECNGHCIF@?$CL?$CL?$AA@ 00000001800118fc     libvcruntime:undname.obj
 0002:00000900       ??_C@_02BAABKJLB@?9?9?$AA@ 0000000180011900     libvcruntime:undname.obj
 0002:00000904       ??_C@_01JOAMLHOP@?9?$AA@   0000000180011904     libvcruntime:undname.obj
 0002:00000908       ??_C@_01MIFGBAGJ@?$CL?$AA@ 0000000180011908     libvcruntime:undname.obj
 0002:0000090c       ??_C@_01HNPIGOCE@?$CG?$AA@ 000000018001190c     libvcruntime:undname.obj
 0002:00000910       ??_C@_03MNHNFDLC@?9?$DO?$CK?$AA@ 0000000180011910     libvcruntime:undname.obj
 0002:00000914       ??_C@_01KMDKNFGN@?1?$AA@   0000000180011914     libvcruntime:undname.obj
 0002:00000918       ??_C@_01FGNFDNOH@?$CF?$AA@ 0000000180011918     libvcruntime:undname.obj
 0002:0000091c       ??_C@_01MNNFJEPP@?$DM?$AA@ 000000018001191c     libvcruntime:undname.obj
 0002:00000920       ??_C@_02EHCHHCKH@?$DM?$DN?$AA@ 0000000180011920     libvcruntime:undname.obj
 0002:00000924       ??_C@_01PPODPGHN@?$DO?$AA@ 0000000180011924     libvcruntime:undname.obj
 0002:00000928       ??_C@_02EEKDKGMJ@?$DO?$DN?$AA@ 0000000180011928     libvcruntime:undname.obj
 0002:0000092c       ??_C@_01IHBHIGKO@?0?$AA@   000000018001192c     libvcruntime:undname.obj
 0002:00000930       ??_C@_02HCKGKOFO@?$CI?$CJ?$AA@ 0000000180011930     libvcruntime:undname.obj
 0002:00000934       ??_C@_01PJKLJHI@?$HO?$AA@  0000000180011934     libvcruntime:undname.obj
 0002:00000938       ??_C@_01JKBOJNNK@?$FO?$AA@ 0000000180011938     libvcruntime:undname.obj
 0002:0000093c       ??_C@_01DNKMNLPK@?$HM?$AA@ 000000018001193c     libvcruntime:undname.obj
 0002:00000940       ??_C@_02PPKAJPJL@?$CG?$CG?$AA@ 0000000180011940     libvcruntime:undname.obj
 0002:00000944       ??_C@_02NONPIBCD@?$HM?$HM?$AA@ 0000000180011944     libvcruntime:undname.obj
 0002:00000948       ??_C@_02FPIMKNGF@?$CK?$DN?$AA@ 0000000180011948     libvcruntime:undname.obj
 0002:0000094c       ??_C@_02FOEOMHFC@?$CL?$DN?$AA@ 000000018001194c     libvcruntime:undname.obj
 0002:00000950       ??_C@_02FKMDLLOA@?9?$DN?$AA@ 0000000180011950     libvcruntime:undname.obj
 0002:00000954       ??_C@_02FJEHGPIO@?1?$DN?$AA@ 0000000180011954     libvcruntime:undname.obj
 0002:00000958       ??_C@_02FENAOKFI@?$CF?$DN?$AA@ 0000000180011958     libvcruntime:undname.obj
 0002:0000095c       ??_C@_03IKFCCPFF@?$DO?$DO?$DN?$AA@ 000000018001195c     libvcruntime:undname.obj
 0002:00000960       ??_C@_03CDNPDDLA@?$DM?$DM?$DN?$AA@ 0000000180011960     libvcruntime:undname.obj
 0002:00000964       ??_C@_02FGJGFEAB@?$CG?$DN?$AA@ 0000000180011964     libvcruntime:undname.obj
 0002:00000968       ??_C@_02DHLNPPGH@?$HM?$DN?$AA@ 0000000180011968     libvcruntime:undname.obj
 0002:0000096c       ??_C@_02MHEGNOJ@?$FO?$DN?$AA@ 000000018001196c     libvcruntime:undname.obj
 0002:00000970       ??_C@_09IFPLHPGF@?$GAvftable?8?$AA@ 0000000180011970     libvcruntime:undname.obj
 0002:00000980       ??_C@_09BLBHBJP@?$GAvbtable?8?$AA@ 0000000180011980     libvcruntime:undname.obj
 0002:00000990       ??_C@_07FEEIOKP@?$GAvcall?8?$AA@ 0000000180011990     libvcruntime:undname.obj
 0002:00000998       ??_C@_08LLFFHHDJ@?$GAtypeof?8?$AA@ 0000000180011998     libvcruntime:undname.obj
 0002:000009a8       ??_C@_0BF@KDPPACIK@?$GAlocal?5static?5guard?8?$AA@ 00000001800119a8     libvcruntime:undname.obj
 0002:000009c0       ??_C@_08OBABFOLI@?$GAstring?8?$AA@ 00000001800119c0     libvcruntime:undname.obj
 0002:000009d0       ??_C@_0BD@JDLKDPAB@?$GAvbase?5destructor?8?$AA@ 00000001800119d0     libvcruntime:undname.obj
 0002:000009e8       ??_C@_0BN@DEGPLNFK@?$GAvector?5deleting?5destructor?8?$AA@ 00000001800119e8     libvcruntime:undname.obj
 0002:00000a08       ??_C@_0BO@OBMKPJIG@?$GAdefault?5constructor?5closure?8?$AA@ 0000000180011a08     libvcruntime:undname.obj
 0002:00000a28       ??_C@_0BN@IMDCHIKM@?$GAscalar?5deleting?5destructor?8?$AA@ 0000000180011a28     libvcruntime:undname.obj
 0002:00000a48       ??_C@_0BO@PFGOCPJJ@?$GAvector?5constructor?5iterator?8?$AA@ 0000000180011a48     libvcruntime:undname.obj
 0002:00000a68       ??_C@_0BN@LFPFMEDL@?$GAvector?5destructor?5iterator?8?$AA@ 0000000180011a68     libvcruntime:undname.obj
 0002:00000a88       ??_C@_0CE@IKBNEHA@?$GAvector?5vbase?5constructor?5iterat@ 0000000180011a88     libvcruntime:undname.obj
 0002:00000ab0       ??_C@_0BL@NILFHHPC@?$GAvirtual?5displacement?5map?8?$AA@ 0000000180011ab0     libvcruntime:undname.obj
 0002:00000ad0       ??_C@_0CB@JONCMFFK@?$GAeh?5vector?5constructor?5iterator?8@ 0000000180011ad0     libvcruntime:undname.obj
 0002:00000af8       ??_C@_0CA@GCEOPDGL@?$GAeh?5vector?5destructor?5iterator?8?$AA@ 0000000180011af8     libvcruntime:undname.obj
 0002:00000b18       ??_C@_0CH@OOJPLCPH@?$GAeh?5vector?5vbase?5constructor?5ite@ 0000000180011b18     libvcruntime:undname.obj
 0002:00000b40       ??_C@_0BL@LLKPOHJI@?$GAcopy?5constructor?5closure?8?$AA@ 0000000180011b40     libvcruntime:undname.obj
 0002:00000b60       ??_C@_0BA@KBCDOMBN@?$GAudt?5returning?8?$AA@ 0000000180011b60     libvcruntime:undname.obj
 0002:00000b70       ??_C@_03KLGMFNMG@?$GAEH?$AA@ 0000000180011b70     libvcruntime:undname.obj
 0002:00000b74       ??_C@_05KHLCHHI@?$GARTTI?$AA@ 0000000180011b74     libvcruntime:undname.obj
 0002:00000b80       ??_C@_0BA@KKLDJDLB@?$GAlocal?5vftable?8?$AA@ 0000000180011b80     libvcruntime:undname.obj
 0002:00000b90       ??_C@_0CE@IIHCMGGL@?$GAlocal?5vftable?5constructor?5closu@ 0000000180011b90     libvcruntime:undname.obj
 0002:00000bb4       ??_C@_06FHBGPFGH@?5new?$FL?$FN?$AA@ 0000000180011bb4     libvcruntime:undname.obj
 0002:00000bc0       ??_C@_09LBNFPBCA@?5delete?$FL?$FN?$AA@ 0000000180011bc0     libvcruntime:undname.obj
 0002:00000bd0       ??_C@_0P@HJKNJFNN@?$GAomni?5callsig?8?$AA@ 0000000180011bd0     libvcruntime:undname.obj
 0002:00000be0       ??_C@_0BL@CNOONJFP@?$GAplacement?5delete?5closure?8?$AA@ 0000000180011be0     libvcruntime:undname.obj
 0002:00000c00       ??_C@_0BN@CKNJLHMB@?$GAplacement?5delete?$FL?$FN?5closure?8?$AA@ 0000000180011c00     libvcruntime:undname.obj
 0002:00000c20       ??_C@_0CG@CFDHKGGD@?$GAmanaged?5vector?5constructor?5iter@ 0000000180011c20     libvcruntime:undname.obj
 0002:00000c48       ??_C@_0CF@IMGKMJNO@?$GAmanaged?5vector?5destructor?5itera@ 0000000180011c48     libvcruntime:undname.obj
 0002:00000c70       ??_C@_0CG@HLDDJMAG@?$GAeh?5vector?5copy?5constructor?5iter@ 0000000180011c70     libvcruntime:undname.obj
 0002:00000c98       ??_C@_0CM@FCBBDIGB@?$GAeh?5vector?5vbase?5copy?5constructo@ 0000000180011c98     libvcruntime:undname.obj
 0002:00000cc8       ??_C@_0BL@CLIPGLGB@?$GAdynamic?5initializer?5for?5?8?$AA@ 0000000180011cc8     libvcruntime:undname.obj
 0002:00000ce8       ??_C@_0CB@PDBIFEP@?$GAdynamic?5atexit?5destructor?5for?5?8@ 0000000180011ce8     libvcruntime:undname.obj
 0002:00000d10       ??_C@_0CD@CGAJBKEJ@?$GAvector?5copy?5constructor?5iterato@ 0000000180011d10     libvcruntime:undname.obj
 0002:00000d38       ??_C@_0CJ@GJELGAMM@?$GAvector?5vbase?5copy?5constructor?5i@ 0000000180011d38     libvcruntime:undname.obj
 0002:00000d68       ??_C@_0CL@FGIJHLCE@?$GAmanaged?5vector?5copy?5constructor@ 0000000180011d68     libvcruntime:undname.obj
 0002:00000d98       ??_C@_0BM@PMGGMLDN@?$GAlocal?5static?5thread?5guard?8?$AA@ 0000000180011d98     libvcruntime:undname.obj
 0002:00000db8       ??_C@_0N@BDNMDMOL@operator?5?$CC?$CC?5?$AA@ 0000000180011db8     libvcruntime:undname.obj
 0002:00000dc8       ??_C@_0BC@DAFEJGAK@?5Type?5Descriptor?8?$AA@ 0000000180011dc8     libvcruntime:undname.obj
 0002:00000de0       ??_C@_0BM@LDKODKLH@?5Base?5Class?5Descriptor?5at?5?$CI?$AA@ 0000000180011de0     libvcruntime:undname.obj
 0002:00000e00       ??_C@_0BD@LGICGFMM@?5Base?5Class?5Array?8?$AA@ 0000000180011e00     libvcruntime:undname.obj
 0002:00000e18       ??_C@_0BN@MECKDCOJ@?5Class?5Hierarchy?5Descriptor?8?$AA@ 0000000180011e18     libvcruntime:undname.obj
 0002:00000e38       ??_C@_0BK@CFCOFLF@?5Complete?5Object?5Locator?8?$AA@ 0000000180011e38     libvcruntime:undname.obj
 0002:00000e60       standard_lookup_table      0000000180011e60     libucrt:output.obj
 0002:00000ebc       ??_C@_06OJHGLDPL@?$CInull?$CJ?$AA@ 0000000180011ebc     libucrt:output.obj
 0002:00000ec8       ??_C@_1O@CEDCILHN@?$AA?$CI?$AAn?$AAu?$AAl?$AAl?$AA?$CJ?$AA?$AA@ 0000000180011ec8     libucrt:output.obj
 0002:00000ee0       __acrt_exception_action_table 0000000180011ee0     libucrt:exception_filter.obj
 0002:00000fa0       __acrt_signal_action_table_count 0000000180011fa0     libucrt:exception_filter.obj
 0002:00000fa8       __acrt_signal_action_first_fpe_index 0000000180011fa8     libucrt:exception_filter.obj
 0002:00000fb0       __acrt_signal_action_fpe_count 0000000180011fb0     libucrt:exception_filter.obj
 0002:00000fb8       ??_C@_1BI@BGOHAHKC@?$AAm?$AAs?$AAc?$AAo?$AAr?$AAe?$AAe?$AA?4?$AAd?$AAl?$AAl?$AA?$AA@ 0000000180011fb8     libucrt:exit.obj
 0002:00000fd0       ??_C@_0P@MIGLKIOC@CorExitProcess?$AA@ 0000000180011fd0     libucrt:exit.obj
 0002:00001238       ??_C@_03OEIAHPBN@INF?$AA@  0000000180012238     libucrt:cvt.obj
 0002:0000123c       ??_C@_03OJHLLCGB@inf?$AA@  000000018001223c     libucrt:cvt.obj
 0002:00001240       ??_C@_03LKNCIKJB@NAN?$AA@  0000000180012240     libucrt:cvt.obj
 0002:00001244       ??_C@_03LHCJEHON@nan?$AA@  0000000180012244     libucrt:cvt.obj
 0002:00001248       ??_C@_09OFJJIMPC@NAN?$CISNAN?$CJ?$AA@ 0000000180012248     libucrt:cvt.obj
 0002:00001258       ??_C@_09IPFBKMDL@nan?$CIsnan?$CJ?$AA@ 0000000180012258     libucrt:cvt.obj
 0002:00001268       ??_C@_08IKHNHAJ@NAN?$CIIND?$CJ?$AA@ 0000000180012268     libucrt:cvt.obj
 0002:00001278       ??_C@_08OFCDMILK@nan?$CIind?$CJ?$AA@ 0000000180012278     libucrt:cvt.obj
 0002:00001284       ??_C@_05KLBDPFGC@e?$CL000?$AA@ 0000000180012284     libucrt:cvt.obj
 0002:00001290       __lc_time_c                0000000180012290     libucrt:nlsdata.obj
 0002:00001550       ??_C@_03KOEHGMDN@Sun?$AA@  0000000180012550     libucrt:nlsdata.obj
 0002:00001554       ??_C@_03PDAGKDH@Mon?$AA@   0000000180012554     libucrt:nlsdata.obj
 0002:00001558       ??_C@_03NAGEINEP@Tue?$AA@  0000000180012558     libucrt:nlsdata.obj
 0002:0000155c       ??_C@_03MHOMLAJA@Wed?$AA@  000000018001255c     libucrt:nlsdata.obj
 0002:00001560       ??_C@_03IOFIKPDN@Thu?$AA@  0000000180012560     libucrt:nlsdata.obj
 0002:00001564       ??_C@_03IDIOELNC@Fri?$AA@  0000000180012564     libucrt:nlsdata.obj
 0002:00001568       ??_C@_03FEFJNEK@Sat?$AA@   0000000180012568     libucrt:nlsdata.obj
 0002:0000156c       ??_C@_06OOPIFAJ@Sunday?$AA@ 000000018001256c     libucrt:nlsdata.obj
 0002:00001574       ??_C@_06JLEDEDGH@Monday?$AA@ 0000000180012574     libucrt:nlsdata.obj
 0002:00001580       ??_C@_07BAAGCFCM@Tuesday?$AA@ 0000000180012580     libucrt:nlsdata.obj
 0002:00001588       ??_C@_09DLIGFAKA@Wednesday?$AA@ 0000000180012588     libucrt:nlsdata.obj
 0002:00001598       ??_C@_08HACCIKIA@Thursday?$AA@ 0000000180012598     libucrt:nlsdata.obj
 0002:000015a4       ??_C@_06JECMNKMI@Friday?$AA@ 00000001800125a4     libucrt:nlsdata.obj
 0002:000015b0       ??_C@_08INBOOONO@Saturday?$AA@ 00000001800125b0     libucrt:nlsdata.obj
 0002:000015bc       ??_C@_03JIHJHPIE@Jan?$AA@  00000001800125bc     libucrt:nlsdata.obj
 0002:000015c0       ??_C@_03HJBDCHOM@Feb?$AA@  00000001800125c0     libucrt:nlsdata.obj
 0002:000015c4       ??_C@_03ODNJBKGA@Mar?$AA@  00000001800125c4     libucrt:nlsdata.obj
 0002:000015c8       ??_C@_03LEOLGMJP@Apr?$AA@  00000001800125c8     libucrt:nlsdata.obj
 0002:000015cc       ??_C@_03CNMDKL@May?$AA@    00000001800125cc     libucrt:nlsdata.obj
 0002:000015d0       ??_C@_03IDFGHECI@Jun?$AA@  00000001800125d0     libucrt:nlsdata.obj
 0002:000015d4       ??_C@_03LBGABGKK@Jul?$AA@  00000001800125d4     libucrt:nlsdata.obj
 0002:000015d8       ??_C@_03IFJFEIGA@Aug?$AA@  00000001800125d8     libucrt:nlsdata.obj
 0002:000015dc       ??_C@_03GGCAPAJC@Sep?$AA@  00000001800125dc     libucrt:nlsdata.obj
 0002:000015e0       ??_C@_03BMAOKBAD@Oct?$AA@  00000001800125e0     libucrt:nlsdata.obj
 0002:000015e4       ??_C@_03JPJOFNIA@Nov?$AA@  00000001800125e4     libucrt:nlsdata.obj
 0002:000015e8       ??_C@_03MKABNOCG@Dec?$AA@  00000001800125e8     libucrt:nlsdata.obj
 0002:000015f0       ??_C@_07CGJPFGJA@January?$AA@ 00000001800125f0     libucrt:nlsdata.obj
 0002:000015f8       ??_C@_08GNJGEPFN@February?$AA@ 00000001800125f8     libucrt:nlsdata.obj
 0002:00001604       ??_C@_05HPCKOFNC@March?$AA@ 0000000180012604     libucrt:nlsdata.obj
 0002:0000160c       ??_C@_05DMJDNLEJ@April?$AA@ 000000018001260c     libucrt:nlsdata.obj
 0002:00001614       ??_C@_04CNLMGBGM@June?$AA@ 0000000180012614     libucrt:nlsdata.obj
 0002:0000161c       ??_C@_04MIEPOIFP@July?$AA@ 000000018001261c     libucrt:nlsdata.obj
 0002:00001624       ??_C@_06LBBHFDDG@August?$AA@ 0000000180012624     libucrt:nlsdata.obj
 0002:00001630       ??_C@_09BHHEALKD@September?$AA@ 0000000180012630     libucrt:nlsdata.obj
 0002:00001640       ??_C@_07JJNFCEND@October?$AA@ 0000000180012640     libucrt:nlsdata.obj
 0002:00001648       ??_C@_08HCHEGEOA@November?$AA@ 0000000180012648     libucrt:nlsdata.obj
 0002:00001658       ??_C@_08EDHMEBNP@December?$AA@ 0000000180012658     libucrt:nlsdata.obj
 0002:00001664       ??_C@_02DEDBPAFC@AM?$AA@   0000000180012664     libucrt:nlsdata.obj
 0002:00001668       ??_C@_02CJNFDJBF@PM?$AA@   0000000180012668     libucrt:nlsdata.obj
 0002:00001670       ??_C@_08BPBNCDIB@MM?1dd?1yy?$AA@ 0000000180012670     libucrt:nlsdata.obj
 0002:00001680       ??_C@_0BE@CKGJFCPC@dddd?0?5MMMM?5dd?0?5yyyy?$AA@ 0000000180012680     libucrt:nlsdata.obj
 0002:00001698       ??_C@_08JCCMCCIL@HH?3mm?3ss?$AA@ 0000000180012698     libucrt:nlsdata.obj
 0002:000016a8       ??_C@_17MBGCMIPB@?$AAS?$AAu?$AAn?$AA?$AA@ 00000001800126a8     libucrt:nlsdata.obj
 0002:000016b0       ??_C@_17KBOMKBF@?$AAM?$AAo?$AAn?$AA?$AA@ 00000001800126b0     libucrt:nlsdata.obj
 0002:000016b8       ??_C@_17BMKGEGOJ@?$AAT?$AAu?$AAe?$AA?$AA@ 00000001800126b8     libucrt:nlsdata.obj
 0002:000016c0       ??_C@_17CJEDCEPE@?$AAW?$AAe?$AAd?$AA?$AA@ 00000001800126c0     libucrt:nlsdata.obj
 0002:000016c8       ??_C@_17PDPHAADD@?$AAT?$AAh?$AAu?$AA?$AA@ 00000001800126c8     libucrt:nlsdata.obj
 0002:000016d0       ??_C@_17HFOLPPLP@?$AAF?$AAr?$AAi?$AA?$AA@ 00000001800126d0     libucrt:nlsdata.obj
 0002:000016d8       ??_C@_17GGIBDPIH@?$AAS?$AAa?$AAt?$AA?$AA@ 00000001800126d8     libucrt:nlsdata.obj
 0002:000016e0       ??_C@_1O@IHNHDHPB@?$AAS?$AAu?$AAn?$AAd?$AAa?$AAy?$AA?$AA@ 00000001800126e0     libucrt:nlsdata.obj
 0002:000016f0       ??_C@_1O@MMNBFLIA@?$AAM?$AAo?$AAn?$AAd?$AAa?$AAy?$AA?$AA@ 00000001800126f0     libucrt:nlsdata.obj
 0002:00001700       ??_C@_1BA@ENFBFFEK@?$AAT?$AAu?$AAe?$AAs?$AAd?$AAa?$AAy?$AA?$AA@ 0000000180012700     libucrt:nlsdata.obj
 0002:00001710       ??_C@_1BE@EBOGMDOH@?$AAW?$AAe?$AAd?$AAn?$AAe?$AAs?$AAd?$AAa?$AAy?$AA?$AA@ 0000000180012710     libucrt:nlsdata.obj
 0002:00001728       ??_C@_1BC@HHMNLIHE@?$AAT?$AAh?$AAu?$AAr?$AAs?$AAd?$AAa?$AAy?$AA?$AA@ 0000000180012728     libucrt:nlsdata.obj
 0002:00001740       ??_C@_1O@PDICJHAG@?$AAF?$AAr?$AAi?$AAd?$AAa?$AAy?$AA?$AA@ 0000000180012740     libucrt:nlsdata.obj
 0002:00001750       ??_C@_1BC@ENMNNPAJ@?$AAS?$AAa?$AAt?$AAu?$AAr?$AAd?$AAa?$AAy?$AA?$AA@ 0000000180012750     libucrt:nlsdata.obj
 0002:00001768       ??_C@_17DKNBKCHM@?$AAJ?$AAa?$AAn?$AA?$AA@ 0000000180012768     libucrt:nlsdata.obj
 0002:00001770       ??_C@_17LMDJEKJN@?$AAF?$AAe?$AAb?$AA?$AA@ 0000000180012770     libucrt:nlsdata.obj
 0002:00001778       ??_C@_17CKNLEDEC@?$AAM?$AAa?$AAr?$AA?$AA@ 0000000180012778     libucrt:nlsdata.obj
 0002:00001780       ??_C@_17LFPOIHDD@?$AAA?$AAp?$AAr?$AA?$AA@ 0000000180012780     libucrt:nlsdata.obj
 0002:00001788       ??_C@_17PNNKMEED@?$AAM?$AAa?$AAy?$AA?$AA@ 0000000180012788     libucrt:nlsdata.obj
 0002:00001790       ??_C@_17KCJGOCPB@?$AAJ?$AAu?$AAn?$AA?$AA@ 0000000180012790     libucrt:nlsdata.obj
 0002:00001798       ??_C@_17IJPCKHK@?$AAJ?$AAu?$AAl?$AA?$AA@ 0000000180012798     libucrt:nlsdata.obj
 0002:000017a0       ??_C@_17ICPELBCN@?$AAA?$AAu?$AAg?$AA?$AA@ 00000001800127a0     libucrt:nlsdata.obj
 0002:000017a8       ??_C@_17HCHCOKMG@?$AAS?$AAe?$AAp?$AA?$AA@ 00000001800127a8     libucrt:nlsdata.obj
 0002:000017b0       ??_C@_17FNLKOI@?$AAO?$AAc?$AAt?$AA?$AA@ 00000001800127b0     libucrt:nlsdata.obj
 0002:000017b8       ??_C@_17BBDMLCIG@?$AAN?$AAo?$AAv?$AA?$AA@ 00000001800127b8     libucrt:nlsdata.obj
 0002:000017c0       ??_C@_17EGKACKIF@?$AAD?$AAe?$AAc?$AA?$AA@ 00000001800127c0     libucrt:nlsdata.obj
 0002:000017c8       ??_C@_1BA@EFMEIEBA@?$AAJ?$AAa?$AAn?$AAu?$AAa?$AAr?$AAy?$AA?$AA@ 00000001800127c8     libucrt:nlsdata.obj
 0002:000017d8       ??_C@_1BC@JGDDFFAM@?$AAF?$AAe?$AAb?$AAr?$AAu?$AAa?$AAr?$AAy?$AA?$AA@ 00000001800127d8     libucrt:nlsdata.obj
 0002:000017f0       ??_C@_1M@IKEENEDF@?$AAM?$AAa?$AAr?$AAc?$AAh?$AA?$AA@ 00000001800127f0     libucrt:nlsdata.obj
 0002:00001800       ??_C@_1M@GJNLMHFD@?$AAA?$AAp?$AAr?$AAi?$AAl?$AA?$AA@ 0000000180012800     libucrt:nlsdata.obj
 0002:00001810       ??_C@_19EPFLPGAP@?$AAJ?$AAu?$AAn?$AAe?$AA?$AA@ 0000000180012810     libucrt:nlsdata.obj
 0002:00001820       ??_C@_19BIFMLPCD@?$AAJ?$AAu?$AAl?$AAy?$AA?$AA@ 0000000180012820     libucrt:nlsdata.obj
 0002:00001830       ??_C@_1O@PAHLKOAC@?$AAA?$AAu?$AAg?$AAu?$AAs?$AAt?$AA?$AA@ 0000000180012830     libucrt:nlsdata.obj
 0002:00001840       ??_C@_1BE@DKAAMBJL@?$AAS?$AAe?$AAp?$AAt?$AAe?$AAm?$AAb?$AAe?$AAr?$AA?$AA@ 0000000180012840     libucrt:nlsdata.obj
 0002:00001858       ??_C@_1BA@EPANDLNG@?$AAO?$AAc?$AAt?$AAo?$AAb?$AAe?$AAr?$AA?$AA@ 0000000180012858     libucrt:nlsdata.obj
 0002:00001868       ??_C@_1BC@BGLIFPF@?$AAN?$AAo?$AAv?$AAe?$AAm?$AAb?$AAe?$AAr?$AA?$AA@ 0000000180012868     libucrt:nlsdata.obj
 0002:00001880       ??_C@_1BC@FEMKIFH@?$AAD?$AAe?$AAc?$AAe?$AAm?$AAb?$AAe?$AAr?$AA?$AA@ 0000000180012880     libucrt:nlsdata.obj
 0002:00001894       ??_C@_15ODEHAHHF@?$AAA?$AAM?$AA?$AA@ 0000000180012894     libucrt:nlsdata.obj
 0002:0000189c       ??_C@_15CLMNNGEL@?$AAP?$AAM?$AA?$AA@ 000000018001289c     libucrt:nlsdata.obj
 0002:000018a8       ??_C@_1BC@IEBCMHCM@?$AAM?$AAM?$AA?1?$AAd?$AAd?$AA?1?$AAy?$AAy?$AA?$AA@ 00000001800128a8     libucrt:nlsdata.obj
 0002:000018c0       ??_C@_1CI@KNAKOEBC@?$AAd?$AAd?$AAd?$AAd?$AA?0?$AA?5?$AAM?$AAM?$AAM?$AAM?$AA?5?$AAd?$AAd?$AA?0?$AA?5?$AAy?$AAy?$AAy?$AAy?$AA?$AA@ 00000001800128c0     libucrt:nlsdata.obj
 0002:000018e8       ??_C@_1BC@GDGBMEMK@?$AAH?$AAH?$AA?3?$AAm?$AAm?$AA?3?$AAs?$AAs?$AA?$AA@ 00000001800128e8     libucrt:nlsdata.obj
 0002:00001900       ??_C@_1M@BMHNFIME@?$AAe?$AAn?$AA?9?$AAU?$AAS?$AA?$AA@ 0000000180012900     libucrt:nlsdata.obj
 0002:000019b0       ??_C@_1EG@CNNIPFIM@?$AAa?$AAp?$AAi?$AA?9?$AAm?$AAs?$AA?9?$AAw?$AAi?$AAn?$AA?9?$AAa?$AAp?$AAp?$AAm?$AAo?$AAd?$AAe?$AAl?$AA?9?$AAr?$AAu?$AAn?$AAt?$AAi?$AAm?$AAe?$AA?9?$AAl?$AA1?$AA?9?$AA1@ 00000001800129b0     libucrt:winapi_thunks.obj
 0002:00001a00       ??_C@_1EA@JGEFHKEI@?$AAa?$AAp?$AAi?$AA?9?$AAm?$AAs?$AA?9?$AAw?$AAi?$AAn?$AA?9?$AAc?$AAo?$AAr?$AAe?$AA?9?$AAd?$AAa?$AAt?$AAe?$AAt?$AAi?$AAm?$AAe?$AA?9?$AAl?$AA1?$AA?9?$AA1?$AA?9?$AA1?$AA?$AA@ 0000000180012a00     libucrt:winapi_thunks.obj
 0002:00001a40       ??_C@_1DI@GCIAAENM@?$AAa?$AAp?$AAi?$AA?9?$AAm?$AAs?$AA?9?$AAw?$AAi?$AAn?$AA?9?$AAc?$AAo?$AAr?$AAe?$AA?9?$AAf?$AAi?$AAl?$AAe?$AA?9?$AAl?$AA2?$AA?9?$AA1?$AA?9?$AA1?$AA?$AA@ 0000000180012a40     libucrt:winapi_thunks.obj
 0002:00001a80       ??_C@_1EI@MPIAOHOC@?$AAa?$AAp?$AAi?$AA?9?$AAm?$AAs?$AA?9?$AAw?$AAi?$AAn?$AA?9?$AAc?$AAo?$AAr?$AAe?$AA?9?$AAl?$AAo?$AAc?$AAa?$AAl?$AAi?$AAz?$AAa?$AAt?$AAi?$AAo?$AAn?$AA?9?$AAl?$AA1?$AA?9@ 0000000180012a80     libucrt:winapi_thunks.obj
 0002:00001ad0       ??_C@_1FK@FPHCKFIE@?$AAa?$AAp?$AAi?$AA?9?$AAm?$AAs?$AA?9?$AAw?$AAi?$AAn?$AA?9?$AAc?$AAo?$AAr?$AAe?$AA?9?$AAl?$AAo?$AAc?$AAa?$AAl?$AAi?$AAz?$AAa?$AAt?$AAi?$AAo?$AAn?$AA?9?$AAo?$AAb?$AAs@ 0000000180012ad0     libucrt:winapi_thunks.obj
 0002:00001b30       ??_C@_1EM@DILCGIIO@?$AAa?$AAp?$AAi?$AA?9?$AAm?$AAs?$AA?9?$AAw?$AAi?$AAn?$AA?9?$AAc?$AAo?$AAr?$AAe?$AA?9?$AAp?$AAr?$AAo?$AAc?$AAe?$AAs?$AAs?$AAt?$AAh?$AAr?$AAe?$AAa?$AAd?$AAs?$AA?9?$AAl@ 0000000180012b30     libucrt:winapi_thunks.obj
 0002:00001b80       ??_C@_1DM@LNCGDDPN@?$AAa?$AAp?$AAi?$AA?9?$AAm?$AAs?$AA?9?$AAw?$AAi?$AAn?$AA?9?$AAc?$AAo?$AAr?$AAe?$AA?9?$AAs?$AAt?$AAr?$AAi?$AAn?$AAg?$AA?9?$AAl?$AA1?$AA?9?$AA1?$AA?9?$AA0?$AA?$AA@ 0000000180012b80     libucrt:winapi_thunks.obj
 0002:00001bc0       ??_C@_1DO@FPAPJEMD@?$AAa?$AAp?$AAi?$AA?9?$AAm?$AAs?$AA?9?$AAw?$AAi?$AAn?$AA?9?$AAc?$AAo?$AAr?$AAe?$AA?9?$AAs?$AAy?$AAs?$AAi?$AAn?$AAf?$AAo?$AA?9?$AAl?$AA1?$AA?9?$AA2?$AA?9?$AA1?$AA?$AA@ 0000000180012bc0     libucrt:winapi_thunks.obj
 0002:00001c00       ??_C@_1DK@NDHNAHIO@?$AAa?$AAp?$AAi?$AA?9?$AAm?$AAs?$AA?9?$AAw?$AAi?$AAn?$AA?9?$AAc?$AAo?$AAr?$AAe?$AA?9?$AAw?$AAi?$AAn?$AAr?$AAt?$AA?9?$AAl?$AA1?$AA?9?$AA1?$AA?9?$AA0?$AA?$AA@ 0000000180012c00     libucrt:winapi_thunks.obj
 0002:00001c40       ??_C@_1DM@KGHDGBCM@?$AAa?$AAp?$AAi?$AA?9?$AAm?$AAs?$AA?9?$AAw?$AAi?$AAn?$AA?9?$AAc?$AAo?$AAr?$AAe?$AA?9?$AAx?$AAs?$AAt?$AAa?$AAt?$AAe?$AA?9?$AAl?$AA2?$AA?9?$AA1?$AA?9?$AA0?$AA?$AA@ 0000000180012c40     libucrt:winapi_thunks.obj
 0002:00001c80       ??_C@_1EO@IJIOEFOH@?$AAa?$AAp?$AAi?$AA?9?$AAm?$AAs?$AA?9?$AAw?$AAi?$AAn?$AA?9?$AAr?$AAt?$AAc?$AAo?$AAr?$AAe?$AA?9?$AAn?$AAt?$AAu?$AAs?$AAe?$AAr?$AA?9?$AAw?$AAi?$AAn?$AAd?$AAo?$AAw?$AA?9@ 0000000180012c80     libucrt:winapi_thunks.obj
 0002:00001cd0       ??_C@_1FG@HHGEKANL@?$AAa?$AAp?$AAi?$AA?9?$AAm?$AAs?$AA?9?$AAw?$AAi?$AAn?$AA?9?$AAs?$AAe?$AAc?$AAu?$AAr?$AAi?$AAt?$AAy?$AA?9?$AAs?$AAy?$AAs?$AAt?$AAe?$AAm?$AAf?$AAu?$AAn?$AAc?$AAt?$AAi@ 0000000180012cd0     libucrt:winapi_thunks.obj
 0002:00001d30       ??_C@_1FG@NCKKOLKO@?$AAe?$AAx?$AAt?$AA?9?$AAm?$AAs?$AA?9?$AAw?$AAi?$AAn?$AA?9?$AAk?$AAe?$AAr?$AAn?$AAe?$AAl?$AA3?$AA2?$AA?9?$AAp?$AAa?$AAc?$AAk?$AAa?$AAg?$AAe?$AA?9?$AAc?$AAu?$AAr?$AAr@ 0000000180012d30     libucrt:winapi_thunks.obj
 0002:00001d90       ??_C@_1EG@DBIOJECG@?$AAe?$AAx?$AAt?$AA?9?$AAm?$AAs?$AA?9?$AAw?$AAi?$AAn?$AA?9?$AAn?$AAt?$AAu?$AAs?$AAe?$AAr?$AA?9?$AAd?$AAi?$AAa?$AAl?$AAo?$AAg?$AAb?$AAo?$AAx?$AA?9?$AAl?$AA1?$AA?9?$AA1@ 0000000180012d90     libucrt:winapi_thunks.obj
 0002:00001de0       ??_C@_1EO@FIHMJCLF@?$AAe?$AAx?$AAt?$AA?9?$AAm?$AAs?$AA?9?$AAw?$AAi?$AAn?$AA?9?$AAn?$AAt?$AAu?$AAs?$AAe?$AAr?$AA?9?$AAw?$AAi?$AAn?$AAd?$AAo?$AAw?$AAs?$AAt?$AAa?$AAt?$AAi?$AAo?$AAn?$AA?9@ 0000000180012de0     libucrt:winapi_thunks.obj
 0002:00001e30       ??_C@_1O@BCCLBEOE@?$AAu?$AAs?$AAe?$AAr?$AA3?$AA2?$AA?$AA@ 0000000180012e30     libucrt:winapi_thunks.obj
 0002:00001e68       ??_C@_0BE@JOGNEJCI@GetCurrentPackageId?$AA@ 0000000180012e68     libucrt:winapi_thunks.obj
 0002:00001e90       ??_C@_0O@KKBNKAPF@LCMapStringEx?$AA@ 0000000180012e90     libucrt:winapi_thunks.obj
 0002:00001ea8       ??_C@_0BB@HBDEELFH@LocaleNameToLCID?$AA@ 0000000180012ea8     libucrt:winapi_thunks.obj
 0002:00001ee0       ??_C@_1M@HPNHIDJI@?$AAj?$AAa?$AA?9?$AAJ?$AAP?$AA?$AA@ 0000000180012ee0     libucrt:mbctype.obj
 0002:00001ef0       ??_C@_1M@BIBDDEMK@?$AAz?$AAh?$AA?9?$AAC?$AAN?$AA?$AA@ 0000000180012ef0     libucrt:mbctype.obj
 0002:00001f00       ??_C@_1M@JLOOOEGK@?$AAk?$AAo?$AA?9?$AAK?$AAR?$AA?$AA@ 0000000180012f00     libucrt:mbctype.obj
 0002:00001f10       ??_C@_1M@CLNBBOPM@?$AAz?$AAh?$AA?9?$AAT?$AAW?$AA?$AA@ 0000000180012f10     libucrt:mbctype.obj
 0002:00001f20       __newctype                 0000000180012f20     libucrt:ctype.obj
 0002:00002220       __newclmap                 0000000180013220     libucrt:ctype.obj
 0002:000023a0       __newcumap                 00000001800133a0     libucrt:ctype.obj
 0002:00002520       ?large_power_data@?1??multiply_by_power_of_ten@__crt_strtox@@YA_NAEAUbig_integer@2@I@Z@4QBIB 0000000180013520     libucrt:cfout.obj
 0002:00002e30       ?large_power_indices@?1??multiply_by_power_of_ten@__crt_strtox@@YA_NAEAUbig_integer@2@I@Z@4QBUunpack_index@?1??12@YA_N0I@Z@B 0000000180013e30     libucrt:cfout.obj
 0002:00002ec8       ?small_powers_of_ten@?6??multiply_by_power_of_ten@__crt_strtox@@YA_NAEAUbig_integer@2@I@Z@4QBIB 0000000180013ec8     libucrt:cfout.obj
 0002:00002eec       ??_C@_01GBGANLPD@0?$AA@    0000000180013eec     libucrt:cfout.obj
 0002:00002ef0       ??_C@_05DNEBIAHO@1?$CDINF?$AA@ 0000000180013ef0     libucrt:cfout.obj
 0002:00002ef8       ??_C@_06IMKFLFPG@1?$CDQNAN?$AA@ 0000000180013ef8     libucrt:cfout.obj
 0002:00002f00       ??_C@_06PGGFOGJG@1?$CDSNAN?$AA@ 0000000180013f00     libucrt:cfout.obj
 0002:00002f08       ??_C@_05PHHOCPM@1?$CDIND?$AA@ 0000000180013f08     libucrt:cfout.obj
 0002:00002f10       ??_C@_15PJPFLCCM@?$AAu?$AAk?$AA?$AA@ 0000000180013f10     libucrt:get_qualified_locale.obj
 0002:00003d60       ??_C@_15EMKDOKLE@?$AAa?$AAr?$AA?$AA@ 0000000180014d60     libucrt:lcidtoname_downlevel.obj
 0002:00003d68       ??_C@_15KNPADPLH@?$AAb?$AAg?$AA?$AA@ 0000000180014d68     libucrt:lcidtoname_downlevel.obj
 0002:00003d70       ??_C@_15EDMHLDMO@?$AAc?$AAa?$AA?$AA@ 0000000180014d70     libucrt:lcidtoname_downlevel.obj
 0002:00003d78       ??_C@_1O@BPEAJADD@?$AAz?$AAh?$AA?9?$AAC?$AAH?$AAS?$AA?$AA@ 0000000180014d78     libucrt:lcidtoname_downlevel.obj
 0002:00003d88       ??_C@_15LJNHCMNK@?$AAc?$AAs?$AA?$AA@ 0000000180014d88     libucrt:lcidtoname_downlevel.obj
 0002:00003d90       ??_C@_15FOMCIDHG@?$AAd?$AAa?$AA?$AA@ 0000000180014d90     libucrt:lcidtoname_downlevel.obj
 0002:00003d98       ??_C@_15NBKABECB@?$AAd?$AAe?$AA?$AA@ 0000000180014d98     libucrt:lcidtoname_downlevel.obj
 0002:00003da0       ??_C@_15GHPEIIAO@?$AAe?$AAl?$AA?$AA@ 0000000180014da0     libucrt:lcidtoname_downlevel.obj
 0002:00003da8       ??_C@_15MNPNEAIF@?$AAe?$AAn?$AA?$AA@ 0000000180014da8     libucrt:lcidtoname_downlevel.obj
 0002:00003db0       ??_C@_15GPIOMPMH@?$AAe?$AAs?$AA?$AA@ 0000000180014db0     libucrt:lcidtoname_downlevel.obj
 0002:00003db8       ??_C@_15NGLOAKJC@?$AAf?$AAi?$AA?$AA@ 0000000180014db8     libucrt:lcidtoname_downlevel.obj
 0002:00003dc0       ??_C@_15FBKGNKAM@?$AAf?$AAr?$AA?$AA@ 0000000180014dc0     libucrt:lcidtoname_downlevel.obj
 0002:00003dc8       ??_C@_15KGGCNEFK@?$AAh?$AAe?$AA?$AA@ 0000000180014dc8     libucrt:lcidtoname_downlevel.obj
 0002:00003dd0       ??_C@_15PGHLIDMF@?$AAh?$AAu?$AA?$AA@ 0000000180014dd0     libucrt:lcidtoname_downlevel.obj
 0002:00003dd8       ??_C@_15BIEMAPLM@?$AAi?$AAs?$AA?$AA@ 0000000180014dd8     libucrt:lcidtoname_downlevel.obj
 0002:00003de0       ??_C@_15IFJLDHAF@?$AAi?$AAt?$AA?$AA@ 0000000180014de0     libucrt:lcidtoname_downlevel.obj
 0002:00003de8       ??_C@_15GEMIOCAG@?$AAj?$AAa?$AA?$AA@ 0000000180014de8     libucrt:lcidtoname_downlevel.obj
 0002:00003df0       ??_C@_15EPELEGJA@?$AAk?$AAo?$AA?$AA@ 0000000180014df0     libucrt:lcidtoname_downlevel.obj
 0002:00003df8       ??_C@_15NDDHIMN@?$AAn?$AAl?$AA?$AA@ 0000000180014df8     libucrt:lcidtoname_downlevel.obj
 0002:00003e00       ??_C@_15BPIGNHCD@?$AAn?$AAo?$AA?$AA@ 0000000180014e00     libucrt:lcidtoname_downlevel.obj
 0002:00003e08       ??_C@_15DEOPBLCG@?$AAp?$AAl?$AA?$AA@ 0000000180014e08     libucrt:lcidtoname_downlevel.obj
 0002:00003e10       ??_C@_15KBECGEFG@?$AAp?$AAt?$AA?$AA@ 0000000180014e10     libucrt:lcidtoname_downlevel.obj
 0002:00003e18       ??_C@_15GLJCBFMD@?$AAr?$AAo?$AA?$AA@ 0000000180014e18     libucrt:lcidtoname_downlevel.obj
 0002:00003e20       ??_C@_15FEDGKCDI@?$AAr?$AAu?$AA?$AA@ 0000000180014e20     libucrt:lcidtoname_downlevel.obj
 0002:00003e28       ??_C@_15GLKMLLHM@?$AAh?$AAr?$AA?$AA@ 0000000180014e28     libucrt:lcidtoname_downlevel.obj
 0002:00003e30       ??_C@_15CPKMFBDB@?$AAs?$AAk?$AA?$AA@ 0000000180014e30     libucrt:lcidtoname_downlevel.obj
 0002:00003e38       ??_C@_15BAAIOGMK@?$AAs?$AAq?$AA?$AA@ 0000000180014e38     libucrt:lcidtoname_downlevel.obj
 0002:00003e40       ??_C@_15INNPNOHD@?$AAs?$AAv?$AA?$AA@ 0000000180014e40     libucrt:lcidtoname_downlevel.obj
 0002:00003e48       ??_C@_15CABMMOGH@?$AAt?$AAh?$AA?$AA@ 0000000180014e48     libucrt:lcidtoname_downlevel.obj
 0002:00003e50       ??_C@_15BPLIHJJM@?$AAt?$AAr?$AA?$AA@ 0000000180014e50     libucrt:lcidtoname_downlevel.obj
 0002:00003e58       ??_C@_15NEOEKKDJ@?$AAu?$AAr?$AA?$AA@ 0000000180014e58     libucrt:lcidtoname_downlevel.obj
 0002:00003e60       ??_C@_15NFICGAJK@?$AAi?$AAd?$AA?$AA@ 0000000180014e60     libucrt:lcidtoname_downlevel.obj
 0002:00003e68       ??_C@_15HPJPHDM@?$AAb?$AAe?$AA?$AA@ 0000000180014e68     libucrt:lcidtoname_downlevel.obj
 0002:00003e70       ??_C@_15LCHLGJII@?$AAs?$AAl?$AA?$AA@ 0000000180014e70     libucrt:lcidtoname_downlevel.obj
 0002:00003e78       ??_C@_15PCFJPHHO@?$AAe?$AAt?$AA?$AA@ 0000000180014e78     libucrt:lcidtoname_downlevel.obj
 0002:00003e80       ??_C@_15HPFPGODN@?$AAl?$AAv?$AA?$AA@ 0000000180014e80     libucrt:lcidtoname_downlevel.obj
 0002:00003e88       ??_C@_15NFFGKGLG@?$AAl?$AAt?$AA?$AA@ 0000000180014e88     libucrt:lcidtoname_downlevel.obj
 0002:00003e90       ??_C@_15BDAKCCHN@?$AAf?$AAa?$AA?$AA@ 0000000180014e90     libucrt:lcidtoname_downlevel.obj
 0002:00003e98       ??_C@_15NFGIAIAJ@?$AAv?$AAi?$AA?$AA@ 0000000180014e98     libucrt:lcidtoname_downlevel.obj
 0002:00003ea0       ??_C@_15LMKNDMHN@?$AAh?$AAy?$AA?$AA@ 0000000180014ea0     libucrt:lcidtoname_downlevel.obj
 0002:00003ea8       ??_C@_15IJBHMCFL@?$AAa?$AAz?$AA?$AA@ 0000000180014ea8     libucrt:lcidtoname_downlevel.obj
 0002:00003eb0       ??_C@_15EKOFJABL@?$AAe?$AAu?$AA?$AA@ 0000000180014eb0     libucrt:lcidtoname_downlevel.obj
 0002:00003eb8       ??_C@_15BGHADCNK@?$AAm?$AAk?$AA?$AA@ 0000000180014eb8     libucrt:lcidtoname_downlevel.obj
 0002:00003ec0       ??_C@_15JDNICKHM@?$AAa?$AAf?$AA?$AA@ 0000000180014ec0     libucrt:lcidtoname_downlevel.obj
 0002:00003ec8       ??_C@_15KPJEDBKD@?$AAk?$AAa?$AA?$AA@ 0000000180014ec8     libucrt:lcidtoname_downlevel.obj
 0002:00003ed0       ??_C@_15PDNFFFEO@?$AAf?$AAo?$AA?$AA@ 0000000180014ed0     libucrt:lcidtoname_downlevel.obj
 0002:00003ed8       ??_C@_15OMLEGLOC@?$AAh?$AAi?$AA?$AA@ 0000000180014ed8     libucrt:lcidtoname_downlevel.obj
 0002:00003ee0       ??_C@_15IDNNENKK@?$AAm?$AAs?$AA?$AA@ 0000000180014ee0     libucrt:lcidtoname_downlevel.obj
 0002:00003ee8       ??_C@_15MACJNBMH@?$AAk?$AAk?$AA?$AA@ 0000000180014ee8     libucrt:lcidtoname_downlevel.obj
 0002:00003ef0       ??_C@_15DKDJEOND@?$AAk?$AAy?$AA?$AA@ 0000000180014ef0     libucrt:lcidtoname_downlevel.obj
 0002:00003ef8       ??_C@_15DFGDLJBG@?$AAs?$AAw?$AA?$AA@ 0000000180014ef8     libucrt:lcidtoname_downlevel.obj
 0002:00003f00       ??_C@_15BBFAICNG@?$AAu?$AAz?$AA?$AA@ 0000000180014f00     libucrt:lcidtoname_downlevel.obj
 0002:00003f08       ??_C@_15DKNDCGEA@?$AAt?$AAt?$AA?$AA@ 0000000180014f08     libucrt:lcidtoname_downlevel.obj
 0002:00003f10       ??_C@_15MGIFMDPL@?$AAp?$AAa?$AA?$AA@ 0000000180014f10     libucrt:lcidtoname_downlevel.obj
 0002:00003f18       ??_C@_15HCNDBBA@?$AAg?$AAu?$AA?$AA@ 0000000180014f18     libucrt:lcidtoname_downlevel.obj
 0002:00003f20       ??_C@_15FNBEIBON@?$AAt?$AAa?$AA?$AA@ 0000000180014f20     libucrt:lcidtoname_downlevel.obj
 0002:00003f28       ??_C@_15NCHGBGLK@?$AAt?$AAe?$AA?$AA@ 0000000180014f28     libucrt:lcidtoname_downlevel.obj
 0002:00003f30       ??_C@_15PHPHCBPF@?$AAk?$AAn?$AA?$AA@ 0000000180014f30     libucrt:lcidtoname_downlevel.obj
 0002:00003f38       ??_C@_15DLGBCKMP@?$AAm?$AAr?$AA?$AA@ 0000000180014f38     libucrt:lcidtoname_downlevel.obj
 0002:00003f40       ??_C@_15EABBLBFF@?$AAs?$AAa?$AA?$AA@ 0000000180014f40     libucrt:lcidtoname_downlevel.obj
 0002:00003f48       ??_C@_15CBKOMCOI@?$AAm?$AAn?$AA?$AA@ 0000000180014f48     libucrt:lcidtoname_downlevel.obj
 0002:00003f50       ??_C@_15CKDMCJAF@?$AAg?$AAl?$AA?$AA@ 0000000180014f50     libucrt:lcidtoname_downlevel.obj
 0002:00003f58       ??_C@_17CNJFBPG@?$AAk?$AAo?$AAk?$AA?$AA@ 0000000180014f58     libucrt:lcidtoname_downlevel.obj
 0002:00003f60       ??_C@_17FFBJICPL@?$AAs?$AAy?$AAr?$AA?$AA@ 0000000180014f60     libucrt:lcidtoname_downlevel.obj
 0002:00003f68       ??_C@_17KPNDCPAF@?$AAd?$AAi?$AAv?$AA?$AA@ 0000000180014f68     libucrt:lcidtoname_downlevel.obj
 0002:00003f70       ??_C@_11LOCGONAA@?$AA?$AA@ 0000000180014f70     libucrt:lcidtoname_downlevel.obj
 0002:00003f78       ??_C@_1M@OKAHONE@?$AAa?$AAr?$AA?9?$AAS?$AAA?$AA?$AA@ 0000000180014f78     libucrt:lcidtoname_downlevel.obj
 0002:00003f88       ??_C@_1M@FFFIGIGK@?$AAb?$AAg?$AA?9?$AAB?$AAG?$AA?$AA@ 0000000180014f88     libucrt:lcidtoname_downlevel.obj
 0002:00003f98       ??_C@_1M@BJNKEDC@?$AAc?$AAa?$AA?9?$AAE?$AAS?$AA?$AA@ 0000000180014f98     libucrt:lcidtoname_downlevel.obj
 0002:00003fa8       ??_C@_1M@IJJHFJHA@?$AAc?$AAs?$AA?9?$AAC?$AAZ?$AA?$AA@ 0000000180014fa8     libucrt:lcidtoname_downlevel.obj
 0002:00003fb8       ??_C@_1M@CLPEOBGI@?$AAd?$AAa?$AA?9?$AAD?$AAK?$AA?$AA@ 0000000180014fb8     libucrt:lcidtoname_downlevel.obj
 0002:00003fc8       ??_C@_1M@MCMADGCB@?$AAd?$AAe?$AA?9?$AAD?$AAE?$AA?$AA@ 0000000180014fc8     libucrt:lcidtoname_downlevel.obj
 0002:00003fd8       ??_C@_1M@OOCKEMAM@?$AAe?$AAl?$AA?9?$AAG?$AAR?$AA?$AA@ 0000000180014fd8     libucrt:lcidtoname_downlevel.obj
 0002:00003fe8       ??_C@_1M@DDNJFGID@?$AAf?$AAi?$AA?9?$AAF?$AAI?$AA?$AA@ 0000000180014fe8     libucrt:lcidtoname_downlevel.obj
 0002:00003ff8       ??_C@_1M@GLIPPMAC@?$AAf?$AAr?$AA?9?$AAF?$AAR?$AA?$AA@ 0000000180014ff8     libucrt:lcidtoname_downlevel.obj
 0002:00004008       ??_C@_1M@GFMCHPE@?$AAh?$AAe?$AA?9?$AAI?$AAL?$AA?$AA@ 0000000180015008     libucrt:lcidtoname_downlevel.obj
 0002:00004018       ??_C@_1M@MHLPGNKM@?$AAh?$AAu?$AA?9?$AAH?$AAU?$AA?$AA@ 0000000180015018     libucrt:lcidtoname_downlevel.obj
 0002:00004028       ??_C@_1M@LPDDNNPN@?$AAi?$AAs?$AA?9?$AAI?$AAS?$AA?$AA@ 0000000180015028     libucrt:lcidtoname_downlevel.obj
 0002:00004038       ??_C@_1M@MADIPODN@?$AAi?$AAt?$AA?9?$AAI?$AAT?$AA?$AA@ 0000000180015038     libucrt:lcidtoname_downlevel.obj
 0002:00004048       ??_C@_1M@IHBJJGG@?$AAn?$AAl?$AA?9?$AAN?$AAL?$AA?$AA@ 0000000180015048     libucrt:lcidtoname_downlevel.obj
 0002:00004058       ??_C@_1M@EANAGDL@?$AAn?$AAb?$AA?9?$AAN?$AAO?$AA?$AA@ 0000000180015058     libucrt:lcidtoname_downlevel.obj
 0002:00004068       ??_C@_1M@NEIEMEGP@?$AAp?$AAl?$AA?9?$AAP?$AAL?$AA?$AA@ 0000000180015068     libucrt:lcidtoname_downlevel.obj
 0002:00004078       ??_C@_1M@BOCFIGEP@?$AAp?$AAt?$AA?9?$AAB?$AAR?$AA?$AA@ 0000000180015078     libucrt:lcidtoname_downlevel.obj
 0002:00004088       ??_C@_1M@IMPFOPBG@?$AAr?$AAo?$AA?9?$AAR?$AAO?$AA?$AA@ 0000000180015088     libucrt:lcidtoname_downlevel.obj
 0002:00004098       ??_C@_1M@IDNNEJMM@?$AAr?$AAu?$AA?9?$AAR?$AAU?$AA?$AA@ 0000000180015098     libucrt:lcidtoname_downlevel.obj
 0002:000040a8       ??_C@_1M@LILEEOGM@?$AAh?$AAr?$AA?9?$AAH?$AAR?$AA?$AA@ 00000001800150a8     libucrt:lcidtoname_downlevel.obj
 0002:000040b8       ??_C@_1M@FKIFEHPB@?$AAs?$AAk?$AA?9?$AAS?$AAK?$AA?$AA@ 00000001800150b8     libucrt:lcidtoname_downlevel.obj
 0002:000040c8       ??_C@_1M@LJMAMNPJ@?$AAs?$AAq?$AA?9?$AAA?$AAL?$AA?$AA@ 00000001800150c8     libucrt:lcidtoname_downlevel.obj
 0002:000040d8       ??_C@_1M@GIAKDKJK@?$AAs?$AAv?$AA?9?$AAS?$AAE?$AA?$AA@ 00000001800150d8     libucrt:lcidtoname_downlevel.obj
 0002:000040e8       ??_C@_1M@MKJKIKCL@?$AAt?$AAh?$AA?9?$AAT?$AAH?$AA?$AA@ 00000001800150e8     libucrt:lcidtoname_downlevel.obj
 0002:000040f8       ??_C@_1M@MFLCCMPB@?$AAt?$AAr?$AA?9?$AAT?$AAR?$AA?$AA@ 00000001800150f8     libucrt:lcidtoname_downlevel.obj
 0002:00004108       ??_C@_1M@OIJHDKJN@?$AAu?$AAr?$AA?9?$AAP?$AAK?$AA?$AA@ 0000000180015108     libucrt:lcidtoname_downlevel.obj
 0002:00004118       ??_C@_1M@LHIPCIEK@?$AAi?$AAd?$AA?9?$AAI?$AAD?$AA?$AA@ 0000000180015118     libucrt:lcidtoname_downlevel.obj
 0002:00004128       ??_C@_1M@MFMOBGI@?$AAu?$AAk?$AA?9?$AAU?$AAA?$AA?$AA@ 0000000180015128     libucrt:lcidtoname_downlevel.obj
 0002:00004138       ??_C@_1M@OBGLJIPL@?$AAb?$AAe?$AA?9?$AAB?$AAY?$AA?$AA@ 0000000180015138     libucrt:lcidtoname_downlevel.obj
 0002:00004148       ??_C@_1M@BCFAJEAD@?$AAs?$AAl?$AA?9?$AAS?$AAI?$AA?$AA@ 0000000180015148     libucrt:lcidtoname_downlevel.obj
 0002:00004158       ??_C@_1M@FKFFEDDN@?$AAe?$AAt?$AA?9?$AAE?$AAE?$AA?$AA@ 0000000180015158     libucrt:lcidtoname_downlevel.obj
 0002:00004168       ??_C@_1M@KGKKAACI@?$AAl?$AAv?$AA?9?$AAL?$AAV?$AA?$AA@ 0000000180015168     libucrt:lcidtoname_downlevel.obj
 0002:00004178       ??_C@_1M@IFGBIJO@?$AAl?$AAt?$AA?9?$AAL?$AAT?$AA?$AA@ 0000000180015178     libucrt:lcidtoname_downlevel.obj
 0002:00004188       ??_C@_1M@FGEAHEDM@?$AAf?$AAa?$AA?9?$AAI?$AAR?$AA?$AA@ 0000000180015188     libucrt:lcidtoname_downlevel.obj
 0002:00004198       ??_C@_1M@KBMAIBFN@?$AAv?$AAi?$AA?9?$AAV?$AAN?$AA?$AA@ 0000000180015198     libucrt:lcidtoname_downlevel.obj
 0002:000041a8       ??_C@_1M@GPCBKDJK@?$AAh?$AAy?$AA?9?$AAA?$AAM?$AA?$AA@ 00000001800151a8     libucrt:lcidtoname_downlevel.obj
 0002:000041b8       ??_C@_1BG@BECMDDJB@?$AAa?$AAz?$AA?9?$AAA?$AAZ?$AA?9?$AAL?$AAa?$AAt?$AAn?$AA?$AA@ 00000001800151b8     libucrt:lcidtoname_downlevel.obj
 0002:000041d0       ??_C@_1M@MAOFCAEA@?$AAe?$AAu?$AA?9?$AAE?$AAS?$AA?$AA@ 00000001800151d0     libucrt:lcidtoname_downlevel.obj
 0002:000041e0       ??_C@_1M@IGHABKPI@?$AAm?$AAk?$AA?9?$AAM?$AAK?$AA?$AA@ 00000001800151e0     libucrt:lcidtoname_downlevel.obj
 0002:000041f0       ??_C@_1M@IAIGNEJG@?$AAt?$AAn?$AA?9?$AAZ?$AAA?$AA?$AA@ 00000001800151f0     libucrt:lcidtoname_downlevel.obj
 0002:00004200       ??_C@_1M@IIJCOJFA@?$AAx?$AAh?$AA?9?$AAZ?$AAA?$AA?$AA@ 0000000180015200     libucrt:lcidtoname_downlevel.obj
 0002:00004210       ??_C@_1M@LGPJHNJH@?$AAz?$AAu?$AA?9?$AAZ?$AAA?$AA?$AA@ 0000000180015210     libucrt:lcidtoname_downlevel.obj
 0002:00004220       ??_C@_1M@HOKAOIO@?$AAa?$AAf?$AA?9?$AAZ?$AAA?$AA?$AA@ 0000000180015220     libucrt:lcidtoname_downlevel.obj
 0002:00004230       ??_C@_1M@DPCLHLIE@?$AAk?$AAa?$AA?9?$AAG?$AAE?$AA?$AA@ 0000000180015230     libucrt:lcidtoname_downlevel.obj
 0002:00004240       ??_C@_1M@BLKMHJBI@?$AAf?$AAo?$AA?9?$AAF?$AAO?$AA?$AA@ 0000000180015240     libucrt:lcidtoname_downlevel.obj
 0002:00004250       ??_C@_1M@LGGJAPPB@?$AAh?$AAi?$AA?9?$AAI?$AAN?$AA?$AA@ 0000000180015250     libucrt:lcidtoname_downlevel.obj
 0002:00004260       ??_C@_1M@FIKPIHFE@?$AAm?$AAt?$AA?9?$AAM?$AAT?$AA?$AA@ 0000000180015260     libucrt:lcidtoname_downlevel.obj
 0002:00004270       ??_C@_1M@HEGGPBFA@?$AAs?$AAe?$AA?9?$AAN?$AAO?$AA?$AA@ 0000000180015270     libucrt:lcidtoname_downlevel.obj
 0002:00004280       ??_C@_1M@EIBJEEPA@?$AAm?$AAs?$AA?9?$AAM?$AAY?$AA?$AA@ 0000000180015280     libucrt:lcidtoname_downlevel.obj
 0002:00004290       ??_C@_1M@FHLBGMPP@?$AAk?$AAk?$AA?9?$AAK?$AAZ?$AA?$AA@ 0000000180015290     libucrt:lcidtoname_downlevel.obj
 0002:000042a0       ??_C@_1M@NGJJLCGI@?$AAk?$AAy?$AA?9?$AAK?$AAG?$AA?$AA@ 00000001800152a0     libucrt:lcidtoname_downlevel.obj
 0002:000042b0       ??_C@_1M@GIENNBFC@?$AAs?$AAw?$AA?9?$AAK?$AAE?$AA?$AA@ 00000001800152b0     libucrt:lcidtoname_downlevel.obj
 0002:000042c0       ??_C@_1BG@NDGMJIMJ@?$AAu?$AAz?$AA?9?$AAU?$AAZ?$AA?9?$AAL?$AAa?$AAt?$AAn?$AA?$AA@ 00000001800152c0     libucrt:lcidtoname_downlevel.obj
 0002:000042d8       ??_C@_1M@IDCCIHBC@?$AAt?$AAt?$AA?9?$AAR?$AAU?$AA?$AA@ 00000001800152d8     libucrt:lcidtoname_downlevel.obj
 0002:000042e8       ??_C@_1M@LOICPMOJ@?$AAb?$AAn?$AA?9?$AAI?$AAN?$AA?$AA@ 00000001800152e8     libucrt:lcidtoname_downlevel.obj
 0002:000042f8       ??_C@_1M@KPKKNEAH@?$AAp?$AAa?$AA?9?$AAI?$AAN?$AA?$AA@ 00000001800152f8     libucrt:lcidtoname_downlevel.obj
 0002:00004308       ??_C@_1M@PJGPPBOG@?$AAg?$AAu?$AA?9?$AAI?$AAN?$AA?$AA@ 0000000180015308     libucrt:lcidtoname_downlevel.obj
 0002:00004318       ??_C@_1M@KMKMOPHI@?$AAt?$AAa?$AA?9?$AAI?$AAN?$AA?$AA@ 0000000180015318     libucrt:lcidtoname_downlevel.obj
 0002:00004328       ??_C@_1M@KFEHEPAC@?$AAt?$AAe?$AA?9?$AAI?$AAN?$AA?$AA@ 0000000180015328     libucrt:lcidtoname_downlevel.obj
 0002:00004338       ??_C@_1M@CDCLMGHI@?$AAk?$AAn?$AA?9?$AAI?$AAN?$AA?$AA@ 0000000180015338     libucrt:lcidtoname_downlevel.obj
 0002:00004348       ??_C@_1M@MIODLDKF@?$AAm?$AAl?$AA?9?$AAI?$AAN?$AA?$AA@ 0000000180015348     libucrt:lcidtoname_downlevel.obj
 0002:00004358       ??_C@_1M@PBIEACPO@?$AAm?$AAr?$AA?9?$AAI?$AAN?$AA?$AA@ 0000000180015358     libucrt:lcidtoname_downlevel.obj
 0002:00004368       ??_C@_1M@NIDEAGPH@?$AAs?$AAa?$AA?9?$AAI?$AAN?$AA?$AA@ 0000000180015368     libucrt:lcidtoname_downlevel.obj
 0002:00004378       ??_C@_1M@FHIHCBIO@?$AAm?$AAn?$AA?9?$AAM?$AAN?$AA?$AA@ 0000000180015378     libucrt:lcidtoname_downlevel.obj
 0002:00004388       ??_C@_1M@JAIJPENP@?$AAc?$AAy?$AA?9?$AAG?$AAB?$AA?$AA@ 0000000180015388     libucrt:lcidtoname_downlevel.obj
 0002:00004398       ??_C@_1M@PHGFBEPN@?$AAg?$AAl?$AA?9?$AAE?$AAS?$AA?$AA@ 0000000180015398     libucrt:lcidtoname_downlevel.obj
 0002:000043a8       ??_C@_1O@KPIPDNCP@?$AAk?$AAo?$AAk?$AA?9?$AAI?$AAN?$AA?$AA@ 00000001800153a8     libucrt:lcidtoname_downlevel.obj
 0002:000043b8       ??_C@_1O@KNHJLDJA@?$AAs?$AAy?$AAr?$AA?9?$AAS?$AAY?$AA?$AA@ 00000001800153b8     libucrt:lcidtoname_downlevel.obj
 0002:000043c8       ??_C@_1O@MKEKBLAH@?$AAd?$AAi?$AAv?$AA?9?$AAM?$AAV?$AA?$AA@ 00000001800153c8     libucrt:lcidtoname_downlevel.obj
 0002:000043d8       ??_C@_1O@OHDCKDDF@?$AAq?$AAu?$AAz?$AA?9?$AAB?$AAO?$AA?$AA@ 00000001800153d8     libucrt:lcidtoname_downlevel.obj
 0002:000043e8       ??_C@_1M@LEPJNLFD@?$AAn?$AAs?$AA?9?$AAZ?$AAA?$AA?$AA@ 00000001800153e8     libucrt:lcidtoname_downlevel.obj
 0002:000043f8       ??_C@_1M@OMLEIIJB@?$AAm?$AAi?$AA?9?$AAN?$AAZ?$AA?$AA@ 00000001800153f8     libucrt:lcidtoname_downlevel.obj
 0002:00004408       ??_C@_1M@PMPEAILG@?$AAa?$AAr?$AA?9?$AAI?$AAQ?$AA?$AA@ 0000000180015408     libucrt:lcidtoname_downlevel.obj
 0002:00004418       ??_C@_1M@CNKPNOEE@?$AAd?$AAe?$AA?9?$AAC?$AAH?$AA?$AA@ 0000000180015418     libucrt:lcidtoname_downlevel.obj
 0002:00004428       ??_C@_1M@LKMGMLKO@?$AAe?$AAn?$AA?9?$AAG?$AAB?$AA?$AA@ 0000000180015428     libucrt:lcidtoname_downlevel.obj
 0002:00004438       ??_C@_1M@PGKJFFGL@?$AAe?$AAs?$AA?9?$AAM?$AAX?$AA?$AA@ 0000000180015438     libucrt:lcidtoname_downlevel.obj
 0002:00004448       ??_C@_1M@DNNANBDC@?$AAf?$AAr?$AA?9?$AAB?$AAE?$AA?$AA@ 0000000180015448     libucrt:lcidtoname_downlevel.obj
 0002:00004458       ??_C@_1M@HLGMDFHM@?$AAi?$AAt?$AA?9?$AAC?$AAH?$AA?$AA@ 0000000180015458     libucrt:lcidtoname_downlevel.obj
 0002:00004468       ??_C@_1M@CLLBGJH@?$AAn?$AAl?$AA?9?$AAB?$AAE?$AA?$AA@ 0000000180015468     libucrt:lcidtoname_downlevel.obj
 0002:00004478       ??_C@_1M@BODBOGLF@?$AAn?$AAn?$AA?9?$AAN?$AAO?$AA?$AA@ 0000000180015478     libucrt:lcidtoname_downlevel.obj
 0002:00004488       ??_C@_1M@HFFAHKAD@?$AAp?$AAt?$AA?9?$AAP?$AAT?$AA?$AA@ 0000000180015488     libucrt:lcidtoname_downlevel.obj
 0002:00004498       ??_C@_1BG@LNOAKHIE@?$AAs?$AAr?$AA?9?$AAS?$AAP?$AA?9?$AAL?$AAa?$AAt?$AAn?$AA?$AA@ 0000000180015498     libucrt:lcidtoname_downlevel.obj
 0002:000044b0       ??_C@_1M@HBMHBGAK@?$AAs?$AAv?$AA?9?$AAF?$AAI?$AA?$AA@ 00000001800154b0     libucrt:lcidtoname_downlevel.obj
 0002:000044c0       ??_C@_1BG@DGCJGJBE@?$AAa?$AAz?$AA?9?$AAA?$AAZ?$AA?9?$AAC?$AAy?$AAr?$AAl?$AA?$AA@ 00000001800154c0     libucrt:lcidtoname_downlevel.obj
 0002:000044d8       ??_C@_1M@KEJDAAHB@?$AAs?$AAe?$AA?9?$AAS?$AAE?$AA?$AA@ 00000001800154d8     libucrt:lcidtoname_downlevel.obj
 0002:000044e8       ??_C@_1M@HEIBJJAD@?$AAm?$AAs?$AA?9?$AAB?$AAN?$AA?$AA@ 00000001800154e8     libucrt:lcidtoname_downlevel.obj
 0002:000044f8       ??_C@_1BG@PBGJMCEM@?$AAu?$AAz?$AA?9?$AAU?$AAZ?$AA?9?$AAC?$AAy?$AAr?$AAl?$AA?$AA@ 00000001800154f8     libucrt:lcidtoname_downlevel.obj
 0002:00004510       ??_C@_1O@LAOBCMDF@?$AAq?$AAu?$AAz?$AA?9?$AAE?$AAC?$AA?$AA@ 0000000180015510     libucrt:lcidtoname_downlevel.obj
 0002:00004520       ??_C@_1M@POEEMAIO@?$AAa?$AAr?$AA?9?$AAE?$AAG?$AA?$AA@ 0000000180015520     libucrt:lcidtoname_downlevel.obj
 0002:00004530       ??_C@_1M@EFAKDEDL@?$AAz?$AAh?$AA?9?$AAH?$AAK?$AA?$AA@ 0000000180015530     libucrt:lcidtoname_downlevel.obj
 0002:00004540       ??_C@_1M@HKKIJHGI@?$AAd?$AAe?$AA?9?$AAA?$AAT?$AA?$AA@ 0000000180015540     libucrt:lcidtoname_downlevel.obj
 0002:00004550       ??_C@_1M@KBFBEHJF@?$AAe?$AAn?$AA?9?$AAA?$AAU?$AA?$AA@ 0000000180015550     libucrt:lcidtoname_downlevel.obj
 0002:00004560       ??_C@_1M@MNPLFAAH@?$AAe?$AAs?$AA?9?$AAE?$AAS?$AA?$AA@ 0000000180015560     libucrt:lcidtoname_downlevel.obj
 0002:00004570       ??_C@_1M@HJOOJFMA@?$AAf?$AAr?$AA?9?$AAC?$AAA?$AA?$AA@ 0000000180015570     libucrt:lcidtoname_downlevel.obj
 0002:00004580       ??_C@_1BG@JPOFPNAB@?$AAs?$AAr?$AA?9?$AAS?$AAP?$AA?9?$AAC?$AAy?$AAr?$AAl?$AA?$AA@ 0000000180015580     libucrt:lcidtoname_downlevel.obj
 0002:00004598       ??_C@_1M@LNFOCMOB@?$AAs?$AAe?$AA?9?$AAF?$AAI?$AA?$AA@ 0000000180015598     libucrt:lcidtoname_downlevel.obj
 0002:000045a8       ??_C@_1O@MGJBOAMB@?$AAq?$AAu?$AAz?$AA?9?$AAP?$AAE?$AA?$AA@ 00000001800155a8     libucrt:lcidtoname_downlevel.obj
 0002:000045b8       ??_C@_1M@GJINLBOK@?$AAa?$AAr?$AA?9?$AAL?$AAY?$AA?$AA@ 00000001800155b8     libucrt:lcidtoname_downlevel.obj
 0002:000045c8       ??_C@_1M@GGMNHJNL@?$AAz?$AAh?$AA?9?$AAS?$AAG?$AA?$AA@ 00000001800155c8     libucrt:lcidtoname_downlevel.obj
 0002:000045d8       ??_C@_1M@HOIKODND@?$AAd?$AAe?$AA?9?$AAL?$AAU?$AA?$AA@ 00000001800155d8     libucrt:lcidtoname_downlevel.obj
 0002:000045e8       ??_C@_1M@DDOCCGFG@?$AAe?$AAn?$AA?9?$AAC?$AAA?$AA?$AA@ 00000001800155e8     libucrt:lcidtoname_downlevel.obj
 0002:000045f8       ??_C@_1M@BNOEMJLF@?$AAe?$AAs?$AA?9?$AAG?$AAT?$AA?$AA@ 00000001800155f8     libucrt:lcidtoname_downlevel.obj
 0002:00004608       ??_C@_1M@EOGNKEK@?$AAf?$AAr?$AA?9?$AAC?$AAH?$AA?$AA@ 0000000180015608     libucrt:lcidtoname_downlevel.obj
 0002:00004618       ??_C@_1M@FLIDJFHL@?$AAh?$AAr?$AA?9?$AAB?$AAA?$AA?$AA@ 0000000180015618     libucrt:lcidtoname_downlevel.obj
 0002:00004628       ??_C@_1O@FMCELNAJ@?$AAs?$AAm?$AAj?$AA?9?$AAN?$AAO?$AA?$AA@ 0000000180015628     libucrt:lcidtoname_downlevel.obj
 0002:00004638       ??_C@_1M@JHGLJMGJ@?$AAa?$AAr?$AA?9?$AAD?$AAZ?$AA?$AA@ 0000000180015638     libucrt:lcidtoname_downlevel.obj
 0002:00004648       ??_C@_1M@JKKFDCNP@?$AAz?$AAh?$AA?9?$AAM?$AAO?$AA?$AA@ 0000000180015648     libucrt:lcidtoname_downlevel.obj
 0002:00004658       ??_C@_1M@GEEFALPE@?$AAd?$AAe?$AA?9?$AAL?$AAI?$AA?$AA@ 0000000180015658     libucrt:lcidtoname_downlevel.obj
 0002:00004668       ??_C@_1M@IGEOFBG@?$AAe?$AAn?$AA?9?$AAN?$AAZ?$AA?$AA@ 0000000180015668     libucrt:lcidtoname_downlevel.obj
 0002:00004678       ??_C@_1M@KDBONEHP@?$AAe?$AAs?$AA?9?$AAC?$AAR?$AA?$AA@ 0000000180015678     libucrt:lcidtoname_downlevel.obj
 0002:00004688       ??_C@_1M@FHMDOHNN@?$AAf?$AAr?$AA?9?$AAL?$AAU?$AA?$AA@ 0000000180015688     libucrt:lcidtoname_downlevel.obj
 0002:00004698       ??_C@_1BG@NFKKMAFG@?$AAb?$AAs?$AA?9?$AAB?$AAA?$AA?9?$AAL?$AAa?$AAt?$AAn?$AA?$AA@ 0000000180015698     libucrt:lcidtoname_downlevel.obj
 0002:000046b0       ??_C@_1O@IMNBEMCI@?$AAs?$AAm?$AAj?$AA?9?$AAS?$AAE?$AA?$AA@ 00000001800156b0     libucrt:lcidtoname_downlevel.obj
 0002:000046c0       ??_C@_1M@DHHMBNDP@?$AAa?$AAr?$AA?9?$AAM?$AAA?$AA?$AA@ 00000001800156c0     libucrt:lcidtoname_downlevel.obj
 0002:000046d0       ??_C@_1M@BNBLJCGH@?$AAe?$AAn?$AA?9?$AAI?$AAE?$AA?$AA@ 00000001800156d0     libucrt:lcidtoname_downlevel.obj
 0002:000046e0       ??_C@_1M@GEPAFMDL@?$AAe?$AAs?$AA?9?$AAP?$AAA?$AA?$AA@ 00000001800156e0     libucrt:lcidtoname_downlevel.obj
 0002:000046f0       ??_C@_1M@OJONDMDL@?$AAf?$AAr?$AA?9?$AAM?$AAC?$AA?$AA@ 00000001800156f0     libucrt:lcidtoname_downlevel.obj
 0002:00004700       ??_C@_1BG@OBCNFJB@?$AAs?$AAr?$AA?9?$AAB?$AAA?$AA?9?$AAL?$AAa?$AAt?$AAn?$AA?$AA@ 0000000180015700     libucrt:lcidtoname_downlevel.obj
 0002:00004718       ??_C@_1O@KEMEEGPO@?$AAs?$AAm?$AAa?$AA?9?$AAN?$AAO?$AA?$AA@ 0000000180015718     libucrt:lcidtoname_downlevel.obj
 0002:00004728       ??_C@_1M@ELMGFODK@?$AAa?$AAr?$AA?9?$AAT?$AAN?$AA?$AA@ 0000000180015728     libucrt:lcidtoname_downlevel.obj
 0002:00004738       ??_C@_1M@BHDLHFAF@?$AAe?$AAn?$AA?9?$AAZ?$AAA?$AA?$AA@ 0000000180015738     libucrt:lcidtoname_downlevel.obj
 0002:00004748       ??_C@_1M@BMGIGLIF@?$AAe?$AAs?$AA?9?$AAD?$AAO?$AA?$AA@ 0000000180015748     libucrt:lcidtoname_downlevel.obj
 0002:00004758       ??_C@_1BG@CMBHIPBE@?$AAs?$AAr?$AA?9?$AAB?$AAA?$AA?9?$AAC?$AAy?$AAr?$AAl?$AA?$AA@ 0000000180015758     libucrt:lcidtoname_downlevel.obj
 0002:00004770       ??_C@_1O@HEDBLHNP@?$AAs?$AAm?$AAa?$AA?9?$AAS?$AAE?$AA?$AA@ 0000000180015770     libucrt:lcidtoname_downlevel.obj
 0002:00004780       ??_C@_1M@DAGCADIM@?$AAa?$AAr?$AA?9?$AAO?$AAM?$AA?$AA@ 0000000180015780     libucrt:lcidtoname_downlevel.obj
 0002:00004790       ??_C@_1M@FODLMICG@?$AAe?$AAn?$AA?9?$AAJ?$AAM?$AA?$AA@ 0000000180015790     libucrt:lcidtoname_downlevel.obj
 0002:000047a0       ??_C@_1M@DNMLCIHB@?$AAe?$AAs?$AA?9?$AAV?$AAE?$AA?$AA@ 00000001800157a0     libucrt:lcidtoname_downlevel.obj
 0002:000047b0       ??_C@_1O@EOKHMKJK@?$AAs?$AAm?$AAs?$AA?9?$AAF?$AAI?$AA?$AA@ 00000001800157b0     libucrt:lcidtoname_downlevel.obj
 0002:000047c0       ??_C@_1M@CAFJMKOF@?$AAa?$AAr?$AA?9?$AAY?$AAE?$AA?$AA@ 00000001800157c0     libucrt:lcidtoname_downlevel.obj
 0002:000047d0       ??_C@_1M@CBFHIJLI@?$AAe?$AAn?$AA?9?$AAC?$AAB?$AA?$AA@ 00000001800157d0     libucrt:lcidtoname_downlevel.obj
 0002:000047e0       ??_C@_1M@BGNFLDN@?$AAe?$AAs?$AA?9?$AAC?$AAO?$AA?$AA@ 00000001800157e0     libucrt:lcidtoname_downlevel.obj
 0002:000047f0       ??_C@_1O@JMPHMAMC@?$AAs?$AAm?$AAn?$AA?9?$AAF?$AAI?$AA?$AA@ 00000001800157f0     libucrt:lcidtoname_downlevel.obj
 0002:00004800       ??_C@_1M@JLANABKE@?$AAa?$AAr?$AA?9?$AAS?$AAY?$AA?$AA@ 0000000180015800     libucrt:lcidtoname_downlevel.obj
 0002:00004810       ??_C@_1M@HPKGCFGN@?$AAe?$AAn?$AA?9?$AAB?$AAZ?$AA?$AA@ 0000000180015810     libucrt:lcidtoname_downlevel.obj
 0002:00004820       ??_C@_1M@OLJCMLGM@?$AAe?$AAs?$AA?9?$AAP?$AAE?$AA?$AA@ 0000000180015820     libucrt:lcidtoname_downlevel.obj
 0002:00004830       ??_C@_1M@MKKGFKLE@?$AAa?$AAr?$AA?9?$AAJ?$AAO?$AA?$AA@ 0000000180015830     libucrt:lcidtoname_downlevel.obj
 0002:00004840       ??_C@_1M@EKPGLDNI@?$AAe?$AAn?$AA?9?$AAT?$AAT?$AA?$AA@ 0000000180015840     libucrt:lcidtoname_downlevel.obj
 0002:00004850       ??_C@_1M@OONGHFHE@?$AAe?$AAs?$AA?9?$AAA?$AAR?$AA?$AA@ 0000000180015850     libucrt:lcidtoname_downlevel.obj
 0002:00004860       ??_C@_1M@OOJFGBHE@?$AAa?$AAr?$AA?9?$AAL?$AAB?$AA?$AA@ 0000000180015860     libucrt:lcidtoname_downlevel.obj
 0002:00004870       ??_C@_1M@GCEJHNEG@?$AAe?$AAn?$AA?9?$AAZ?$AAW?$AA?$AA@ 0000000180015870     libucrt:lcidtoname_downlevel.obj
 0002:00004880       ??_C@_1M@JNOCAHJI@?$AAe?$AAs?$AA?9?$AAE?$AAC?$AA?$AA@ 0000000180015880     libucrt:lcidtoname_downlevel.obj
 0002:00004890       ??_C@_1M@JEFHPGGB@?$AAa?$AAr?$AA?9?$AAK?$AAW?$AA?$AA@ 0000000180015890     libucrt:lcidtoname_downlevel.obj
 0002:000048a0       ??_C@_1M@MLKIBJOJ@?$AAe?$AAn?$AA?9?$AAP?$AAH?$AA?$AA@ 00000001800158a0     libucrt:lcidtoname_downlevel.obj
 0002:000048b0       ??_C@_1M@BDNIPEND@?$AAe?$AAs?$AA?9?$AAC?$AAL?$AA?$AA@ 00000001800158b0     libucrt:lcidtoname_downlevel.obj
 0002:000048c0       ??_C@_1M@MPNMEKBD@?$AAa?$AAr?$AA?9?$AAA?$AAE?$AA?$AA@ 00000001800158c0     libucrt:lcidtoname_downlevel.obj
 0002:000048d0       ??_C@_1M@KBJALCPI@?$AAe?$AAs?$AA?9?$AAU?$AAY?$AA?$AA@ 00000001800158d0     libucrt:lcidtoname_downlevel.obj
 0002:000048e0       ??_C@_1M@LLCCOAGA@?$AAa?$AAr?$AA?9?$AAB?$AAH?$AA?$AA@ 00000001800158e0     libucrt:lcidtoname_downlevel.obj
 0002:000048f0       ??_C@_1M@PBFNCDEL@?$AAe?$AAs?$AA?9?$AAP?$AAY?$AA?$AA@ 00000001800158f0     libucrt:lcidtoname_downlevel.obj
 0002:00004900       ??_C@_1M@EDGINPNP@?$AAa?$AAr?$AA?9?$AAQ?$AAA?$AA?$AA@ 0000000180015900     libucrt:lcidtoname_downlevel.obj
 0002:00004910       ??_C@_1M@MKDBIIJI@?$AAe?$AAs?$AA?9?$AAB?$AAO?$AA?$AA@ 0000000180015910     libucrt:lcidtoname_downlevel.obj
 0002:00004920       ??_C@_1M@CPKKEBLD@?$AAe?$AAs?$AA?9?$AAS?$AAV?$AA?$AA@ 0000000180015920     libucrt:lcidtoname_downlevel.obj
 0002:00004930       ??_C@_1M@NDBGMMJL@?$AAe?$AAs?$AA?9?$AAH?$AAN?$AA?$AA@ 0000000180015930     libucrt:lcidtoname_downlevel.obj
 0002:00004940       ??_C@_1M@JIJIBHDP@?$AAe?$AAs?$AA?9?$AAN?$AAI?$AA?$AA@ 0000000180015940     libucrt:lcidtoname_downlevel.obj
 0002:00004950       ??_C@_1M@CGFMKEEK@?$AAe?$AAs?$AA?9?$AAP?$AAR?$AA?$AA@ 0000000180015950     libucrt:lcidtoname_downlevel.obj
 0002:00004960       ??_C@_1O@ICJHKIIK@?$AAz?$AAh?$AA?9?$AAC?$AAH?$AAT?$AA?$AA@ 0000000180015960     libucrt:lcidtoname_downlevel.obj
 0002:00004970       ??_C@_15CLNEJCE@?$AAs?$AAr?$AA?$AA@ 0000000180015970     libucrt:lcidtoname_downlevel.obj
 0002:000057c0       ??_C@_1M@KAHEKEIG@?$AAa?$AAf?$AA?9?$AAz?$AAa?$AA?$AA@ 00000001800167c0     libucrt:lcidtoname_downlevel.obj
 0002:000057d0       ??_C@_1M@GIECOABL@?$AAa?$AAr?$AA?9?$AAa?$AAe?$AA?$AA@ 00000001800167d0     libucrt:lcidtoname_downlevel.obj
 0002:000057e0       ??_C@_1M@BMLMEKGI@?$AAa?$AAr?$AA?9?$AAb?$AAh?$AA?$AA@ 00000001800167e0     libucrt:lcidtoname_downlevel.obj
 0002:000057f0       ??_C@_1M@DAPFDGGB@?$AAa?$AAr?$AA?9?$AAd?$AAz?$AA?$AA@ 00000001800167f0     libucrt:lcidtoname_downlevel.obj
 0002:00005800       ??_C@_1M@FJNKGKIG@?$AAa?$AAr?$AA?9?$AAe?$AAg?$AA?$AA@ 0000000180016800     libucrt:lcidtoname_downlevel.obj
 0002:00005810       ??_C@_1M@FLGKKCLO@?$AAa?$AAr?$AA?9?$AAi?$AAq?$AA?$AA@ 0000000180016810     libucrt:lcidtoname_downlevel.obj
 0002:00005820       ??_C@_1M@GNDIPALM@?$AAa?$AAr?$AA?9?$AAj?$AAo?$AA?$AA@ 0000000180016820     libucrt:lcidtoname_downlevel.obj
 0002:00005830       ??_C@_1M@DDMJFMGJ@?$AAa?$AAr?$AA?9?$AAk?$AAw?$AA?$AA@ 0000000180016830     libucrt:lcidtoname_downlevel.obj
 0002:00005840       ??_C@_1M@EJALMLHM@?$AAa?$AAr?$AA?9?$AAl?$AAb?$AA?$AA@ 0000000180016840     libucrt:lcidtoname_downlevel.obj
 0002:00005850       ??_C@_1M@MOBDBLOC@?$AAa?$AAr?$AA?9?$AAl?$AAy?$AA?$AA@ 0000000180016850     libucrt:lcidtoname_downlevel.obj
 0002:00005860       ??_C@_1M@JAOCLHDH@?$AAa?$AAr?$AA?9?$AAm?$AAa?$AA?$AA@ 0000000180016860     libucrt:lcidtoname_downlevel.obj
 0002:00005870       ??_C@_1M@JHPMKJIE@?$AAa?$AAr?$AA?9?$AAo?$AAm?$AA?$AA@ 0000000180016870     libucrt:lcidtoname_downlevel.obj
 0002:00005880       ??_C@_1M@OEPGHFNH@?$AAa?$AAr?$AA?9?$AAq?$AAa?$AA?$AA@ 0000000180016880     libucrt:lcidtoname_downlevel.obj
 0002:00005890       ??_C@_1M@KJDONENM@?$AAa?$AAr?$AA?9?$AAs?$AAa?$AA?$AA@ 0000000180016890     libucrt:lcidtoname_downlevel.obj
 0002:000058a0       ??_C@_1M@DMJDKLKM@?$AAa?$AAr?$AA?9?$AAs?$AAy?$AA?$AA@ 00000001800168a0     libucrt:lcidtoname_downlevel.obj
 0002:000058b0       ??_C@_1M@OMFIPEDC@?$AAa?$AAr?$AA?9?$AAt?$AAn?$AA?$AA@ 00000001800168b0     libucrt:lcidtoname_downlevel.obj
 0002:000058c0       ??_C@_1M@IHMHGAON@?$AAa?$AAr?$AA?9?$AAy?$AAe?$AA?$AA@ 00000001800168c0     libucrt:lcidtoname_downlevel.obj
 0002:000058d0       ??_C@_1BG@KDCPGJGB@?$AAa?$AAz?$AA?9?$AAa?$AAz?$AA?9?$AAc?$AAy?$AAr?$AAl?$AA?$AA@ 00000001800168d0     libucrt:lcidtoname_downlevel.obj
 0002:000058e8       ??_C@_1BG@IBCKDDOE@?$AAa?$AAz?$AA?9?$AAa?$AAz?$AA?9?$AAl?$AAa?$AAt?$AAn?$AA?$AA@ 00000001800168e8     libucrt:lcidtoname_downlevel.obj
 0002:00005900       ??_C@_1M@EGPFDCPD@?$AAb?$AAe?$AA?9?$AAb?$AAy?$AA?$AA@ 0000000180016900     libucrt:lcidtoname_downlevel.obj
 0002:00005910       ??_C@_1M@PCMGMCGC@?$AAb?$AAg?$AA?9?$AAb?$AAg?$AA?$AA@ 0000000180016910     libucrt:lcidtoname_downlevel.obj
 0002:00005920       ??_C@_1M@BJBMFGOB@?$AAb?$AAn?$AA?9?$AAi?$AAn?$AA?$AA@ 0000000180016920     libucrt:lcidtoname_downlevel.obj
 0002:00005930       ??_C@_1BG@EAKMMACD@?$AAb?$AAs?$AA?9?$AAb?$AAa?$AA?9?$AAl?$AAa?$AAt?$AAn?$AA?$AA@ 0000000180016930     libucrt:lcidtoname_downlevel.obj
 0002:00005948       ??_C@_1M@KGADAODK@?$AAc?$AAa?$AA?9?$AAe?$AAs?$AA?$AA@ 0000000180016948     libucrt:lcidtoname_downlevel.obj
 0002:00005958       ??_C@_1M@COAJPDHI@?$AAc?$AAs?$AA?9?$AAc?$AAz?$AA?$AA@ 0000000180016958     libucrt:lcidtoname_downlevel.obj
 0002:00005968       ??_C@_1M@DHBHFONH@?$AAc?$AAy?$AA?9?$AAg?$AAb?$AA?$AA@ 0000000180016968     libucrt:lcidtoname_downlevel.obj
 0002:00005978       ??_C@_1M@IMGKELGA@?$AAd?$AAa?$AA?9?$AAd?$AAk?$AA?$AA@ 0000000180016978     libucrt:lcidtoname_downlevel.obj
 0002:00005988       ??_C@_1M@NNDGDNGA@?$AAd?$AAe?$AA?9?$AAa?$AAt?$AA?$AA@ 0000000180016988     libucrt:lcidtoname_downlevel.obj
 0002:00005998       ??_C@_1M@IKDBHEEM@?$AAd?$AAe?$AA?9?$AAc?$AAh?$AA?$AA@ 0000000180016998     libucrt:lcidtoname_downlevel.obj
 0002:000059a8       ??_C@_1M@GFFOJMCJ@?$AAd?$AAe?$AA?9?$AAd?$AAe?$AA?$AA@ 00000001800169a8     libucrt:lcidtoname_downlevel.obj
 0002:000059b8       ??_C@_1M@MDNLKBPM@?$AAd?$AAe?$AA?9?$AAl?$AAi?$AA?$AA@ 00000001800169b8     libucrt:lcidtoname_downlevel.obj
 0002:000059c8       ??_C@_1M@NJBEEJNL@?$AAd?$AAe?$AA?9?$AAl?$AAu?$AA?$AA@ 00000001800169c8     libucrt:lcidtoname_downlevel.obj
 0002:000059d8       ??_C@_1O@GNNELBAP@?$AAd?$AAi?$AAv?$AA?9?$AAm?$AAv?$AA?$AA@ 00000001800169d8     libucrt:lcidtoname_downlevel.obj
 0002:000059e8       ??_C@_1M@EJLEOGAE@?$AAe?$AAl?$AA?9?$AAg?$AAr?$AA?$AA@ 00000001800169e8     libucrt:lcidtoname_downlevel.obj
 0002:000059f8       ??_C@_1M@GMPONJN@?$AAe?$AAn?$AA?9?$AAa?$AAu?$AA?$AA@ 00000001800169f8     libucrt:lcidtoname_downlevel.obj
 0002:00005a08       ??_C@_1M@NIDIIPGF@?$AAe?$AAn?$AA?9?$AAb?$AAz?$AA?$AA@ 0000000180016a08     libucrt:lcidtoname_downlevel.obj
 0002:00005a18       ??_C@_1M@JEHMIMFO@?$AAe?$AAn?$AA?9?$AAc?$AAa?$AA?$AA@ 0000000180016a18     libucrt:lcidtoname_downlevel.obj
 0002:00005a28       ??_C@_1M@IGMJCDLA@?$AAe?$AAn?$AA?9?$AAc?$AAb?$AA?$AA@ 0000000180016a28     libucrt:lcidtoname_downlevel.obj
 0002:00005a38       ??_C@_1M@BNFIGBKG@?$AAe?$AAn?$AA?9?$AAg?$AAb?$AA?$AA@ 0000000180016a38     libucrt:lcidtoname_downlevel.obj
 0002:00005a48       ??_C@_1M@LKIFDIGP@?$AAe?$AAn?$AA?9?$AAi?$AAe?$AA?$AA@ 0000000180016a48     libucrt:lcidtoname_downlevel.obj
 0002:00005a58       ??_C@_1M@PJKFGCCO@?$AAe?$AAn?$AA?9?$AAj?$AAm?$AA?$AA@ 0000000180016a58     libucrt:lcidtoname_downlevel.obj
 0002:00005a68       ??_C@_1M@KPPKEPBO@?$AAe?$AAn?$AA?9?$AAn?$AAz?$AA?$AA@ 0000000180016a68     libucrt:lcidtoname_downlevel.obj
 0002:00005a78       ??_C@_1M@GMDGLDOB@?$AAe?$AAn?$AA?9?$AAp?$AAh?$AA?$AA@ 0000000180016a78     libucrt:lcidtoname_downlevel.obj
 0002:00005a88       ??_C@_1M@ONGIBJNA@?$AAe?$AAn?$AA?9?$AAt?$AAt?$AA?$AA@ 0000000180016a88     libucrt:lcidtoname_downlevel.obj
 0002:00005a98       ??_C@_1M@LLODPCMM@?$AAe?$AAn?$AA?9?$AAu?$AAs?$AA?$AA@ 0000000180016a98     libucrt:lcidtoname_downlevel.obj
 0002:00005aa8       ??_C@_1M@LAKFNPAN@?$AAe?$AAn?$AA?9?$AAz?$AAa?$AA?$AA@ 0000000180016aa8     libucrt:lcidtoname_downlevel.obj
 0002:00005ab8       ??_C@_1M@MFNHNHEO@?$AAe?$AAn?$AA?9?$AAz?$AAw?$AA?$AA@ 0000000180016ab8     libucrt:lcidtoname_downlevel.obj
 0002:00005ac8       ??_C@_1M@EJEINPHM@?$AAe?$AAs?$AA?9?$AAa?$AAr?$AA?$AA@ 0000000180016ac8     libucrt:lcidtoname_downlevel.obj
 0002:00005ad8       ??_C@_1M@GNKPCCJA@?$AAe?$AAs?$AA?9?$AAb?$AAo?$AA?$AA@ 0000000180016ad8     libucrt:lcidtoname_downlevel.obj
 0002:00005ae8       ??_C@_1M@LEEGFONL@?$AAe?$AAs?$AA?9?$AAc?$AAl?$AA?$AA@ 0000000180016ae8     libucrt:lcidtoname_downlevel.obj
 0002:00005af8       ??_C@_1M@KGPDPBDF@?$AAe?$AAs?$AA?9?$AAc?$AAo?$AA?$AA@ 0000000180016af8     libucrt:lcidtoname_downlevel.obj
 0002:00005b08       ??_C@_1M@EIAHOHH@?$AAe?$AAs?$AA?9?$AAc?$AAr?$AA?$AA@ 0000000180016b08     libucrt:lcidtoname_downlevel.obj
 0002:00005b18       ??_C@_1M@LLPGMBIN@?$AAe?$AAs?$AA?9?$AAd?$AAo?$AA?$AA@ 0000000180016b18     libucrt:lcidtoname_downlevel.obj
 0002:00005b28       ??_C@_1M@DKHMKNJA@?$AAe?$AAs?$AA?9?$AAe?$AAc?$AA?$AA@ 0000000180016b28     libucrt:lcidtoname_downlevel.obj
 0002:00005b38       ??_C@_1M@GKGFPKAP@?$AAe?$AAs?$AA?9?$AAe?$AAs?$AA?$AA@ 0000000180016b38     libucrt:lcidtoname_downlevel.obj
 0002:00005b48       ??_C@_1M@LKHKGDLN@?$AAe?$AAs?$AA?9?$AAg?$AAt?$AA?$AA@ 0000000180016b48     libucrt:lcidtoname_downlevel.obj
 0002:00005b58       ??_C@_1M@HEIIGGJD@?$AAe?$AAs?$AA?9?$AAh?$AAn?$AA?$AA@ 0000000180016b58     libucrt:lcidtoname_downlevel.obj
 0002:00005b68       ??_C@_1M@FBDHPPGD@?$AAe?$AAs?$AA?9?$AAm?$AAx?$AA?$AA@ 0000000180016b68     libucrt:lcidtoname_downlevel.obj
 0002:00005b78       ??_C@_1M@DPAGLNDH@?$AAe?$AAs?$AA?9?$AAn?$AAi?$AA?$AA@ 0000000180016b78     libucrt:lcidtoname_downlevel.obj
 0002:00005b88       ??_C@_1M@MDGOPGDD@?$AAe?$AAs?$AA?9?$AAp?$AAa?$AA?$AA@ 0000000180016b88     libucrt:lcidtoname_downlevel.obj
 0002:00005b98       ??_C@_1M@EMAMGBGE@?$AAe?$AAs?$AA?9?$AAp?$AAe?$AA?$AA@ 0000000180016b98     libucrt:lcidtoname_downlevel.obj
 0002:00005ba8       ??_C@_1M@IBMCAOEC@?$AAe?$AAs?$AA?9?$AAp?$AAr?$AA?$AA@ 0000000180016ba8     libucrt:lcidtoname_downlevel.obj
 0002:00005bb8       ??_C@_1M@FGMDIJED@?$AAe?$AAs?$AA?9?$AAp?$AAy?$AA?$AA@ 0000000180016bb8     libucrt:lcidtoname_downlevel.obj
 0002:00005bc8       ??_C@_1M@IIDEOLLL@?$AAe?$AAs?$AA?9?$AAs?$AAv?$AA?$AA@ 0000000180016bc8     libucrt:lcidtoname_downlevel.obj
 0002:00005bd8       ??_C@_1M@GAOBIPA@?$AAe?$AAs?$AA?9?$AAu?$AAy?$AA?$AA@ 0000000180016bd8     libucrt:lcidtoname_downlevel.obj
 0002:00005be8       ??_C@_1M@JKFFICHJ@?$AAe?$AAs?$AA?9?$AAv?$AAe?$AA?$AA@ 0000000180016be8     libucrt:lcidtoname_downlevel.obj
 0002:00005bf8       ??_C@_1M@PNMLOJDF@?$AAe?$AAt?$AA?9?$AAe?$AAe?$AA?$AA@ 0000000180016bf8     libucrt:lcidtoname_downlevel.obj
 0002:00005c08       ??_C@_1M@GHHLIKEI@?$AAe?$AAu?$AA?9?$AAe?$AAs?$AA?$AA@ 0000000180016c08     libucrt:lcidtoname_downlevel.obj
 0002:00005c18       ??_C@_1M@PBNONODE@?$AAf?$AAa?$AA?9?$AAi?$AAr?$AA?$AA@ 0000000180016c18     libucrt:lcidtoname_downlevel.obj
 0002:00005c28       ??_C@_1M@JEEHPMIL@?$AAf?$AAi?$AA?9?$AAf?$AAi?$AA?$AA@ 0000000180016c28     libucrt:lcidtoname_downlevel.obj
 0002:00005c38       ??_C@_1M@LMDCNDBA@?$AAf?$AAo?$AA?9?$AAf?$AAo?$AA?$AA@ 0000000180016c38     libucrt:lcidtoname_downlevel.obj
 0002:00005c48       ??_C@_1M@JKEOHLDK@?$AAf?$AAr?$AA?9?$AAb?$AAe?$AA?$AA@ 0000000180016c48     libucrt:lcidtoname_downlevel.obj
 0002:00005c58       ??_C@_1M@NOHADPMI@?$AAf?$AAr?$AA?9?$AAc?$AAa?$AA?$AA@ 0000000180016c58     libucrt:lcidtoname_downlevel.obj
 0002:00005c68       ??_C@_1M@KDHIHAEC@?$AAf?$AAr?$AA?9?$AAc?$AAh?$AA?$AA@ 0000000180016c68     libucrt:lcidtoname_downlevel.obj
 0002:00005c78       ??_C@_1M@MMBBFGAK@?$AAf?$AAr?$AA?9?$AAf?$AAr?$AA?$AA@ 0000000180016c78     libucrt:lcidtoname_downlevel.obj
 0002:00005c88       ??_C@_1M@PAFNENNF@?$AAf?$AAr?$AA?9?$AAl?$AAu?$AA?$AA@ 0000000180016c88     libucrt:lcidtoname_downlevel.obj
 0002:00005c98       ??_C@_1M@EOHDJGDD@?$AAf?$AAr?$AA?9?$AAm?$AAc?$AA?$AA@ 0000000180016c98     libucrt:lcidtoname_downlevel.obj
 0002:00005ca8       ??_C@_1M@FAPLLOPF@?$AAg?$AAl?$AA?9?$AAe?$AAs?$AA?$AA@ 0000000180016ca8     libucrt:lcidtoname_downlevel.obj
 0002:00005cb8       ??_C@_1M@FOPBFLOO@?$AAg?$AAu?$AA?9?$AAi?$AAn?$AA?$AA@ 0000000180016cb8     libucrt:lcidtoname_downlevel.obj
 0002:00005cc8       ??_C@_1M@KBMCINPM@?$AAh?$AAe?$AA?9?$AAi?$AAl?$AA?$AA@ 0000000180016cc8     libucrt:lcidtoname_downlevel.obj
 0002:00005cd8       ??_C@_1M@BBPHKFPJ@?$AAh?$AAi?$AA?9?$AAi?$AAn?$AA?$AA@ 0000000180016cd8     libucrt:lcidtoname_downlevel.obj
 0002:00005ce8       ??_C@_1M@PMBNDPHD@?$AAh?$AAr?$AA?9?$AAb?$AAa?$AA?$AA@ 0000000180016ce8     libucrt:lcidtoname_downlevel.obj
 0002:00005cf8       ??_C@_1M@BPCKOEGE@?$AAh?$AAr?$AA?9?$AAh?$AAr?$AA?$AA@ 0000000180016cf8     libucrt:lcidtoname_downlevel.obj
 0002:00005d08       ??_C@_1M@GACBMHKE@?$AAh?$AAu?$AA?9?$AAh?$AAu?$AA?$AA@ 0000000180016d08     libucrt:lcidtoname_downlevel.obj
 0002:00005d18       ??_C@_1M@MILPAJJC@?$AAh?$AAy?$AA?9?$AAa?$AAm?$AA?$AA@ 0000000180016d18     libucrt:lcidtoname_downlevel.obj
 0002:00005d28       ??_C@_1M@BABBICEC@?$AAi?$AAd?$AA?9?$AAi?$AAd?$AA?$AA@ 0000000180016d28     libucrt:lcidtoname_downlevel.obj
 0002:00005d38       ??_C@_1M@BIKNHHPF@?$AAi?$AAs?$AA?9?$AAi?$AAs?$AA?$AA@ 0000000180016d38     libucrt:lcidtoname_downlevel.obj
 0002:00005d48       ??_C@_1M@NMPCJPHE@?$AAi?$AAt?$AA?9?$AAc?$AAh?$AA?$AA@ 0000000180016d48     libucrt:lcidtoname_downlevel.obj
 0002:00005d58       ??_C@_1M@GHKGFEDF@?$AAi?$AAt?$AA?9?$AAi?$AAt?$AA?$AA@ 0000000180016d58     libucrt:lcidtoname_downlevel.obj
 0002:00005d68       ??_C@_1M@NIEJCJJA@?$AAj?$AAa?$AA?9?$AAj?$AAp?$AA?$AA@ 0000000180016d68     libucrt:lcidtoname_downlevel.obj
 0002:00005d78       ??_C@_1M@JILFNBIM@?$AAk?$AAa?$AA?9?$AAg?$AAe?$AA?$AA@ 0000000180016d78     libucrt:lcidtoname_downlevel.obj
 0002:00005d88       ??_C@_1M@PACPMGPH@?$AAk?$AAk?$AA?9?$AAk?$AAz?$AA?$AA@ 0000000180016d88     libucrt:lcidtoname_downlevel.obj
 0002:00005d98       ??_C@_1M@IELFGMHA@?$AAk?$AAn?$AA?9?$AAi?$AAn?$AA?$AA@ 0000000180016d98     libucrt:lcidtoname_downlevel.obj
 0002:00005da8       ??_C@_1O@IBBJHCH@?$AAk?$AAo?$AAk?$AA?9?$AAi?$AAn?$AA?$AA@ 0000000180016da8     libucrt:lcidtoname_downlevel.obj
 0002:00005db8       ??_C@_1M@DMHAEOGC@?$AAk?$AAo?$AA?9?$AAk?$AAr?$AA?$AA@ 0000000180016db8     libucrt:lcidtoname_downlevel.obj
 0002:00005dc8       ??_C@_1M@HBAHBIGA@?$AAk?$AAy?$AA?9?$AAk?$AAg?$AA?$AA@ 0000000180016dc8     libucrt:lcidtoname_downlevel.obj
 0002:00005dd8       ??_C@_1M@KPMILCJG@?$AAl?$AAt?$AA?9?$AAl?$AAt?$AA?$AA@ 0000000180016dd8     libucrt:lcidtoname_downlevel.obj
 0002:00005de8       ??_C@_1M@BDEKKCA@?$AAl?$AAv?$AA?9?$AAl?$AAv?$AA?$AA@ 0000000180016de8     libucrt:lcidtoname_downlevel.obj
 0002:00005df8       ??_C@_1M@ELCKCCJJ@?$AAm?$AAi?$AA?9?$AAn?$AAz?$AA?$AA@ 0000000180016df8     libucrt:lcidtoname_downlevel.obj
 0002:00005e08       ??_C@_1M@CBOOLAPA@?$AAm?$AAk?$AA?9?$AAm?$AAk?$AA?$AA@ 0000000180016e08     libucrt:lcidtoname_downlevel.obj
 0002:00005e18       ??_C@_1M@GPHNBJKN@?$AAm?$AAl?$AA?9?$AAi?$AAn?$AA?$AA@ 0000000180016e18     libucrt:lcidtoname_downlevel.obj
 0002:00005e28       ??_C@_1M@PABJILIG@?$AAm?$AAn?$AA?9?$AAm?$AAn?$AA?$AA@ 0000000180016e28     libucrt:lcidtoname_downlevel.obj
 0002:00005e38       ??_C@_1M@FGBKKIPG@?$AAm?$AAr?$AA?9?$AAi?$AAn?$AA?$AA@ 0000000180016e38     libucrt:lcidtoname_downlevel.obj
 0002:00005e48       ??_C@_1M@NDBPDDAL@?$AAm?$AAs?$AA?9?$AAb?$AAn?$AA?$AA@ 0000000180016e48     libucrt:lcidtoname_downlevel.obj
 0002:00005e58       ??_C@_1M@OPIHOOPI@?$AAm?$AAs?$AA?9?$AAm?$AAy?$AA?$AA@ 0000000180016e58     libucrt:lcidtoname_downlevel.obj
 0002:00005e68       ??_C@_1M@PPDBCNFM@?$AAm?$AAt?$AA?9?$AAm?$AAt?$AA?$AA@ 0000000180016e68     libucrt:lcidtoname_downlevel.obj
 0002:00005e78       ??_C@_1M@KDJDKMDD@?$AAn?$AAb?$AA?9?$AAn?$AAo?$AA?$AA@ 0000000180016e78     libucrt:lcidtoname_downlevel.obj
 0002:00005e88       ??_C@_1M@KFCFLMJP@?$AAn?$AAl?$AA?9?$AAb?$AAe?$AA?$AA@ 0000000180016e88     libucrt:lcidtoname_downlevel.obj
 0002:00005e98       ??_C@_1M@KPOPDDGO@?$AAn?$AAl?$AA?9?$AAn?$AAl?$AA?$AA@ 0000000180016e98     libucrt:lcidtoname_downlevel.obj
 0002:00005ea8       ??_C@_1M@LJKPEMLN@?$AAn?$AAn?$AA?9?$AAn?$AAo?$AA?$AA@ 0000000180016ea8     libucrt:lcidtoname_downlevel.obj
 0002:00005eb8       ??_C@_1M@BDGHHBFL@?$AAn?$AAs?$AA?9?$AAz?$AAa?$AA?$AA@ 0000000180016eb8     libucrt:lcidtoname_downlevel.obj
 0002:00005ec8       ??_C@_1M@IDEHOAP@?$AAp?$AAa?$AA?9?$AAi?$AAn?$AA?$AA@ 0000000180016ec8     libucrt:lcidtoname_downlevel.obj
 0002:00005ed8       ??_C@_1M@HDBKGOGH@?$AAp?$AAl?$AA?9?$AAp?$AAl?$AA?$AA@ 0000000180016ed8     libucrt:lcidtoname_downlevel.obj
 0002:00005ee8       ??_C@_1M@LJLLCMEH@?$AAp?$AAt?$AA?9?$AAb?$AAr?$AA?$AA@ 0000000180016ee8     libucrt:lcidtoname_downlevel.obj
 0002:00005ef8       ??_C@_1M@NCMONAAL@?$AAp?$AAt?$AA?9?$AAp?$AAt?$AA?$AA@ 0000000180016ef8     libucrt:lcidtoname_downlevel.obj
 0002:00005f08       ??_C@_1O@EAKMAJDN@?$AAq?$AAu?$AAz?$AA?9?$AAb?$AAo?$AA?$AA@ 0000000180016f08     libucrt:lcidtoname_downlevel.obj
 0002:00005f18       ??_C@_1O@BHHPIGDN@?$AAq?$AAu?$AAz?$AA?9?$AAe?$AAc?$AA?$AA@ 0000000180016f18     libucrt:lcidtoname_downlevel.obj
 0002:00005f28       ??_C@_1O@GBAPEKMJ@?$AAq?$AAu?$AAz?$AA?9?$AAp?$AAe?$AA?$AA@ 0000000180016f28     libucrt:lcidtoname_downlevel.obj
 0002:00005f38       ??_C@_1M@CLGLEFBO@?$AAr?$AAo?$AA?9?$AAr?$AAo?$AA?$AA@ 0000000180016f38     libucrt:lcidtoname_downlevel.obj
 0002:00005f48       ??_C@_1M@CEEDODME@?$AAr?$AAu?$AA?9?$AAr?$AAu?$AA?$AA@ 0000000180016f48     libucrt:lcidtoname_downlevel.obj
 0002:00005f58       ??_C@_1M@HPKKKMPP@?$AAs?$AAa?$AA?9?$AAi?$AAn?$AA?$AA@ 0000000180016f58     libucrt:lcidtoname_downlevel.obj
 0002:00005f68       ??_C@_1M@BKMAIGOJ@?$AAs?$AAe?$AA?9?$AAf?$AAi?$AA?$AA@ 0000000180016f68     libucrt:lcidtoname_downlevel.obj
 0002:00005f78       ??_C@_1M@NDPIFLFI@?$AAs?$AAe?$AA?9?$AAn?$AAo?$AA?$AA@ 0000000180016f78     libucrt:lcidtoname_downlevel.obj
 0002:00005f88       ??_C@_1M@DANKKHJ@?$AAs?$AAe?$AA?9?$AAs?$AAe?$AA?$AA@ 0000000180016f88     libucrt:lcidtoname_downlevel.obj
 0002:00005f98       ??_C@_1M@PNBLONPJ@?$AAs?$AAk?$AA?9?$AAs?$AAk?$AA?$AA@ 0000000180016f98     libucrt:lcidtoname_downlevel.obj
 0002:00005fa8       ??_C@_1M@LFMODOAL@?$AAs?$AAl?$AA?9?$AAs?$AAi?$AA?$AA@ 0000000180016fa8     libucrt:lcidtoname_downlevel.obj
 0002:00005fb8       ??_C@_1O@DFKOMPG@?$AAs?$AAm?$AAa?$AA?9?$AAn?$AAo?$AA?$AA@ 0000000180016fb8     libucrt:lcidtoname_downlevel.obj
 0002:00005fc8       ??_C@_1O@NDKPBNNH@?$AAs?$AAm?$AAa?$AA?9?$AAs?$AAe?$AA?$AA@ 0000000180016fc8     libucrt:lcidtoname_downlevel.obj
 0002:00005fd8       ??_C@_1O@PLLKBHAB@?$AAs?$AAm?$AAj?$AA?9?$AAn?$AAo?$AA?$AA@ 0000000180016fd8     libucrt:lcidtoname_downlevel.obj
 0002:00005fe8       ??_C@_1O@CLEPOGCA@?$AAs?$AAm?$AAj?$AA?9?$AAs?$AAe?$AA?$AA@ 0000000180016fe8     libucrt:lcidtoname_downlevel.obj
 0002:00005ff8       ??_C@_1O@DLGJGKMK@?$AAs?$AAm?$AAn?$AA?9?$AAf?$AAi?$AA?$AA@ 0000000180016ff8     libucrt:lcidtoname_downlevel.obj
 0002:00006008       ??_C@_1O@OJDJGAJC@?$AAs?$AAm?$AAs?$AA?9?$AAf?$AAi?$AA?$AA@ 0000000180017008     libucrt:lcidtoname_downlevel.obj
 0002:00006018       ??_C@_1M@BOFOGHPB@?$AAs?$AAq?$AA?9?$AAa?$AAl?$AA?$AA@ 0000000180017018     libucrt:lcidtoname_downlevel.obj
 0002:00006028       ??_C@_1BG@LJBBIPGB@?$AAs?$AAr?$AA?9?$AAb?$AAa?$AA?9?$AAc?$AAy?$AAr?$AAl?$AA?$AA@ 0000000180017028     libucrt:lcidtoname_downlevel.obj
 0002:00006040       ??_C@_1BG@JLBENFOE@?$AAs?$AAr?$AA?9?$AAb?$AAa?$AA?9?$AAl?$AAa?$AAt?$AAn?$AA?$AA@ 0000000180017040     libucrt:lcidtoname_downlevel.obj
 0002:00006058       ??_C@_1BG@KODPNHE@?$AAs?$AAr?$AA?9?$AAs?$AAp?$AA?9?$AAc?$AAy?$AAr?$AAl?$AA?$AA@ 0000000180017058     libucrt:lcidtoname_downlevel.obj
 0002:00006070       ??_C@_1BG@CIOGKHPB@?$AAs?$AAr?$AA?9?$AAs?$AAp?$AA?9?$AAl?$AAa?$AAt?$AAn?$AA?$AA@ 0000000180017070     libucrt:lcidtoname_downlevel.obj
 0002:00006088       ??_C@_1M@NGFJLMAC@?$AAs?$AAv?$AA?9?$AAf?$AAi?$AA?$AA@ 0000000180017088     libucrt:lcidtoname_downlevel.obj
 0002:00006098       ??_C@_1M@MPJEJAJC@?$AAs?$AAv?$AA?9?$AAs?$AAe?$AA?$AA@ 0000000180017098     libucrt:lcidtoname_downlevel.obj
 0002:000060a8       ??_C@_1M@MPNDHLFK@?$AAs?$AAw?$AA?9?$AAk?$AAe?$AA?$AA@ 00000001800170a8     libucrt:lcidtoname_downlevel.obj
 0002:000060b8       ??_C@_1O@KOHBJJI@?$AAs?$AAy?$AAr?$AA?9?$AAs?$AAy?$AA?$AA@ 00000001800170b8     libucrt:lcidtoname_downlevel.obj
 0002:000060c8       ??_C@_1M@LDCEFHA@?$AAt?$AAa?$AA?9?$AAi?$AAn?$AA?$AA@ 00000001800170c8     libucrt:lcidtoname_downlevel.obj
 0002:000060d8       ??_C@_1M@CNJOFAK@?$AAt?$AAe?$AA?9?$AAi?$AAn?$AA?$AA@ 00000001800170d8     libucrt:lcidtoname_downlevel.obj
 0002:000060e8       ??_C@_1M@GNAECACD@?$AAt?$AAh?$AA?9?$AAt?$AAh?$AA?$AA@ 00000001800170e8     libucrt:lcidtoname_downlevel.obj
 0002:000060f8       ??_C@_1M@CHBIHOJO@?$AAt?$AAn?$AA?9?$AAz?$AAa?$AA?$AA@ 00000001800170f8     libucrt:lcidtoname_downlevel.obj
 0002:00006108       ??_C@_1M@GCCMIGPJ@?$AAt?$AAr?$AA?9?$AAt?$AAr?$AA?$AA@ 0000000180017108     libucrt:lcidtoname_downlevel.obj
 0002:00006118       ??_C@_1M@CELMCNBK@?$AAt?$AAt?$AA?9?$AAr?$AAu?$AA?$AA@ 0000000180017118     libucrt:lcidtoname_downlevel.obj
 0002:00006128       ??_C@_1M@KLMCELGA@?$AAu?$AAk?$AA?9?$AAu?$AAa?$AA?$AA@ 0000000180017128     libucrt:lcidtoname_downlevel.obj
 0002:00006138       ??_C@_1M@EPAJJAJF@?$AAu?$AAr?$AA?9?$AAp?$AAk?$AA?$AA@ 0000000180017138     libucrt:lcidtoname_downlevel.obj
 0002:00006148       ??_C@_1BG@GEGPMCDJ@?$AAu?$AAz?$AA?9?$AAu?$AAz?$AA?9?$AAc?$AAy?$AAr?$AAl?$AA?$AA@ 0000000180017148     libucrt:lcidtoname_downlevel.obj
 0002:00006160       ??_C@_1BG@EGGKJILM@?$AAu?$AAz?$AA?9?$AAu?$AAz?$AA?9?$AAl?$AAa?$AAt?$AAn?$AA?$AA@ 0000000180017160     libucrt:lcidtoname_downlevel.obj
 0002:00006178       ??_C@_1M@GFOCLFF@?$AAv?$AAi?$AA?9?$AAv?$AAn?$AA?$AA@ 0000000180017178     libucrt:lcidtoname_downlevel.obj
 0002:00006188       ??_C@_1M@CPAMEDFI@?$AAx?$AAh?$AA?9?$AAz?$AAa?$AA?$AA@ 0000000180017188     libucrt:lcidtoname_downlevel.obj
 0002:00006198       ??_C@_1O@EBKIFIGN@?$AAz?$AAh?$AA?9?$AAc?$AAh?$AAs?$AA?$AA@ 0000000180017198     libucrt:lcidtoname_downlevel.obj
 0002:000061a8       ??_C@_1O@NMHPGANE@?$AAz?$AAh?$AA?9?$AAc?$AAh?$AAt?$AA?$AA@ 00000001800171a8     libucrt:lcidtoname_downlevel.obj
 0002:000061b8       ??_C@_1M@LPINJOMC@?$AAz?$AAh?$AA?9?$AAc?$AAn?$AA?$AA@ 00000001800171b8     libucrt:lcidtoname_downlevel.obj
 0002:000061c8       ??_C@_1M@OCJEJODD@?$AAz?$AAh?$AA?9?$AAh?$AAk?$AA?$AA@ 00000001800171c8     libucrt:lcidtoname_downlevel.obj
 0002:000061d8       ??_C@_1M@DNDLJINH@?$AAz?$AAh?$AA?9?$AAm?$AAo?$AA?$AA@ 00000001800171d8     libucrt:lcidtoname_downlevel.obj
 0002:000061e8       ??_C@_1M@MBFDNDND@?$AAz?$AAh?$AA?9?$AAs?$AAg?$AA?$AA@ 00000001800171e8     libucrt:lcidtoname_downlevel.obj
 0002:000061f8       ??_C@_1M@IMEPLEPE@?$AAz?$AAh?$AA?9?$AAt?$AAw?$AA?$AA@ 00000001800171f8     libucrt:lcidtoname_downlevel.obj
 0002:00006208       ??_C@_1M@BBGHNHJP@?$AAz?$AAu?$AA?9?$AAz?$AAa?$AA?$AA@ 0000000180017208     libucrt:lcidtoname_downlevel.obj
 0002:00006218       __real@3ff0000000000000    0000000180017218     libucrt:ceil.obj
 0002:00006470       __log10_256_lead           0000000180017470     libucrt:log10_256_lead_tail_table.obj
 0002:00006c80       __log10_256_tail           0000000180017c80     libucrt:log10_256_lead_tail_table.obj
 0002:00007490       __log_F_inv_qword          0000000180018490     libucrt:log_f_inv_qword_table.obj
 0002:00007ca0       ??_C@_05HGHHAHAP@log10?$AA@ 0000000180018ca0     libucrt:log_special.obj
 0002:00007ca8       ??_C@_1BA@BALFACEM@?$AAC?$AAO?$AAN?$AAO?$AAU?$AAT?$AA$?$AA?$AA@ 0000000180018ca8     libucrt:initcon.obj
 0002:00007cd0       ??_C@_04FCIJFPNK@?$CFllu?$AA@ 0000000180018cd0     node_crc64_ecma_182.obj
 0002:00007cd8       ??_C@_05PBBAKCDP@crc64?$AA@ 0000000180018cd8     node_crc64_ecma_182.obj
 0002:00007ce0       ??_C@_0P@EJMBKBJJ@toUInt64String?$AA@ 0000000180018ce0     node_crc64_ecma_182.obj
 0002:00007cf0       ??_C@_0BO@MAEAHNPL@?4?4?2src?2node_crc64_ecma_182?4cc?$AA@ 0000000180018cf0     node_crc64_ecma_182.obj
 0002:00007d70       _load_config_used          0000000180018d70     LIBCMT:loadcfg.obj
 0002:00008148       __rtc_iaa                  0000000180019148     LIBCMT:_initsect_.obj
 0002:00008150       __rtc_izz                  0000000180019150     LIBCMT:_initsect_.obj
 0002:00008158       __rtc_taa                  0000000180019158     LIBCMT:_initsect_.obj
 0002:00008160       __rtc_tzz                  0000000180019160     LIBCMT:_initsect_.obj
 0002:00008ea8       __IMPORT_DESCRIPTOR_KERNEL32 0000000180019ea8     kernel32:KERNEL32.dll
 0002:00008ebc       __IMPORT_DESCRIPTOR_node   0000000180019ebc     iojs:node.dll
 0002:00008ed0       __NULL_IMPORT_DESCRIPTOR   0000000180019ed0     kernel32:KERNEL32.dll
 0003:00000000       __security_cookie          000000018001b000     LIBCMT:gs_cookie.obj
 0003:00000008       __security_cookie_complement 000000018001b008     LIBCMT:gs_cookie.obj
 0003:00000010       __scrt_native_dllmain_reason 000000018001b010     LIBCMT:utility.obj
 0003:00000018       __isa_available            000000018001b018     LIBCMT:_cpu_disp_.obj
 0003:0000001c       __isa_enabled              000000018001b01c     LIBCMT:_cpu_disp_.obj
 0003:00000020       __memcpy_nt_iters          000000018001b020     LIBCMT:_cpu_disp_.obj
 0003:00000034       __abort_behavior           000000018001b034     libucrt:abort.obj
 0003:00000050       _iob                       000000018001b050     libucrt:_file.obj
 0003:00000160       __acrt_initial_locale_data 000000018001b160     libucrt:nlsdata.obj
 0003:000002b8       __acrt_initial_locale_pointers 000000018001b2b8     libucrt:nlsdata.obj
 0003:000002c8       __acrt_wide_c_locale_string 000000018001b2c8     libucrt:nlsdata.obj
 0003:000002d0       __acrt_initial_multibyte_data 000000018001b2d0     libucrt:mbctype.obj
 0003:000004f8       __acrt_current_multibyte_data 000000018001b4f8     libucrt:mbctype.obj
 0003:00000600       _mbctype                   000000018001b600     libucrt:mbctype.obj
 0003:00000710       _mbcasemap                 000000018001b710     libucrt:mbctype.obj
 0003:00000810       __globallocalestatus       000000018001b810     libucrt:glstatus.obj
 0003:00000820       __acrt_lconv_c             000000018001b820     libucrt:localeconv.obj
 0003:000008b8       __acrt_lconv_static_decimal 000000018001b8b8     libucrt:localeconv.obj
 0003:000008bc       __acrt_lconv_static_W_decimal 000000018001b8bc     libucrt:localeconv.obj
 0003:000008d0       __dcrt_lowio_console_output_handle 000000018001b8d0     libucrt:initcon.obj
 0003:000008f0       _fltused                   000000018001b8f0     LIBCMT:fltused.obj
 0003:00000ec0       __scrt_current_native_startup_state 000000018001bec0     LIBCMT:utility.obj
 0003:00000ec8       __scrt_native_startup_lock 000000018001bec8     LIBCMT:utility.obj
 0003:00000f10       ?__type_info_root_node@@3U__type_info_node@@A 000000018001bf10     LIBCMT:tncleanup.obj
 0003:00000f20       ?_OptionsStorage@?1??__local_stdio_scanf_options@@9@4_KA 000000018001bf20     LIBCMT:default_local_stdio_options.obj
 0003:00000f28       __scrt_debugger_hook_flag  000000018001bf28     LIBCMT:utility_desktop.obj
 0003:00000f2c       __favor                    000000018001bf2c     LIBCMT:_cpu_disp_.obj
 0003:00001048       __pPurecall                000000018001c048     libvcruntime:purevirt_data.obj
 0003:00001050       ?pArgList@UnDecorator@@0PEAVReplicator@@EA 000000018001c050     libvcruntime:undname.obj
 0003:00001058       ?pZNameList@UnDecorator@@0PEAVReplicator@@EA 000000018001c058     libvcruntime:undname.obj
 0003:00001060       ?pTemplateArgList@UnDecorator@@0PEAVReplicator@@EA 000000018001c060     libvcruntime:undname.obj
 0003:00001068       ?gName@UnDecorator@@0PEBDEB 000000018001c068     libvcruntime:undname.obj
 0003:00001070       ?name@UnDecorator@@0PEBDEB 000000018001c070     libvcruntime:undname.obj
 0003:00001078       ?outputString@UnDecorator@@0PEADEA 000000018001c078     libvcruntime:undname.obj
 0003:00001080       ?maxStringLength@UnDecorator@@0HA 000000018001c080     libvcruntime:undname.obj
 0003:00001084       ?disableFlags@UnDecorator@@0KA 000000018001c084     libvcruntime:undname.obj
 0003:00001088       ?fExplicitTemplateParams@UnDecorator@@0_NA 000000018001c088     libvcruntime:undname.obj
 0003:00001089       ?fGetTemplateArgumentList@UnDecorator@@0_NA 000000018001c089     libvcruntime:undname.obj
 0003:00001090       ?m_pGetParameter@UnDecorator@@0P6APEADJ@ZEA 000000018001c090     libvcruntime:undname.obj
 0003:000011e8       _environ_table             000000018001c1e8     libucrt:environment_initialization.obj
 0003:000011f0       _wenviron_table            000000018001c1f0     libucrt:environment_initialization.obj
 0003:000011f8       __dcrt_initial_wide_environment 000000018001c1f8     libucrt:environment_initialization.obj
 0003:00001200       __dcrt_initial_narrow_environment 000000018001c200     libucrt:environment_initialization.obj
 0003:00001208       __acrt_atexit_table        000000018001c208     libucrt:onexit.obj
 0003:00001220       __acrt_at_quick_exit_table 000000018001c220     libucrt:onexit.obj
 0003:00001240       _nstream                   000000018001c240     libucrt:_file.obj
 0003:00001248       __piob                     000000018001c248     libucrt:_file.obj
 0003:00001258       __acrt_stdout_buffer       000000018001c258     libucrt:_sftbuf.obj
 0003:00001260       __acrt_stderr_buffer       000000018001c260     libucrt:_sftbuf.obj
 0003:00001268       __acrt_locale_changed_data 000000018001c268     libucrt:wsetlocale.obj
 0003:00001270       __acrt_current_locale_data 000000018001c270     libucrt:nlsdata.obj
 0003:00001280       __pioinfo                  000000018001c280     libucrt:ioinit.obj
 0003:00001680       _nhandle                   000000018001c680     libucrt:ioinit.obj
 0003:00001a64       __mbcodepage               000000018001ca64     libucrt:mbctype.obj
 0003:00001a68       __ismbcodepage             000000018001ca68     libucrt:mbctype.obj
 0003:00001a70       __mbulinfo                 000000018001ca70     libucrt:mbctype.obj
 0003:00001a80       __mblocalename             000000018001ca80     libucrt:mbctype.obj
 0003:00001a8c       __argc                     000000018001ca8c     libucrt:argv_data.obj
 0003:00001a90       __argv                     000000018001ca90     libucrt:argv_data.obj
 0003:00001a98       __wargv                    000000018001ca98     libucrt:argv_data.obj
 0003:00001aa0       _acmdln                    000000018001caa0     libucrt:argv_data.obj
 0003:00001aa8       _wcmdln                    000000018001caa8     libucrt:argv_data.obj
 0003:00001ab0       _pgmptr                    000000018001cab0     libucrt:argv_data.obj
 0003:00001ab8       __acrt_heap                000000018001cab8     libucrt:heap_handle.obj
 0003:00001ad4       __acrt_lconv_static_null   000000018001cad4     libucrt:localeconv.obj
 0003:00001ad8       __acrt_lconv_static_W_null 000000018001cad8     libucrt:localeconv.obj
 0003:00001adc       __fma3_is_available        000000018001cadc     libucrt:fma3_available.obj
 0003:00001ae0       __use_fma3_lib             000000018001cae0     libucrt:fma3_available.obj
 0003:00009b00       ?_OptionsStorage@?1??__local_stdio_printf_options@@9@4_KA 0000000180024b00     node_crc64_ecma_182.obj
 0003:00009b08       __scrt_ucrt_dll_is_in_use  0000000180024b08     <common>
 0003:00009b10       __dyn_tls_init_callback    0000000180024b10     <common>
 0003:00009b18       _pDestructExceptionObject  0000000180024b18     <common>

 entry point at        0001:00000dc0

 Static symbols

 0000:fffd7000       .debug$S                   0000000180000000     kernel32:KERNEL32.dll
 0000:fffd7000       .debug$S                   0000000180000000     kernel32:KERNEL32.dll
 0000:fffd7000       .debug$S                   0000000180000000     kernel32:KERNEL32.dll
 0000:fffd7000       .debug$S                   0000000180000000     kernel32:KERNEL32.dll
 0000:fffd7000       .debug$S                   0000000180000000     kernel32:KERNEL32.dll
 0000:fffd7000       .debug$S                   0000000180000000     kernel32:KERNEL32.dll
 0000:fffd7000       .debug$S                   0000000180000000     kernel32:KERNEL32.dll
 0000:fffd7000       .debug$S                   0000000180000000     kernel32:KERNEL32.dll
 0000:fffd7000       .debug$S                   0000000180000000     kernel32:KERNEL32.dll
 0000:fffd7000       .debug$S                   0000000180000000     iojs:node.dll
 0000:fffd7000       .debug$S                   0000000180000000     iojs:node.dll
 0000:fffd7000       .debug$S                   0000000180000000     iojs:node.dll
 0000:fffd7000       .debug$S                   0000000180000000     iojs:node.dll
 0000:fffd7000       .debug$S                   0000000180000000     iojs:node.dll
 0000:fffd7000       .debug$S                   0000000180000000     iojs:node.dll
 0000:fffd7000       .debug$S                   0000000180000000     iojs:node.dll
 0000:fffd7000       .debug$S                   0000000180000000     iojs:node.dll
 0000:fffd7000       .debug$S                   0000000180000000     iojs:node.dll
 0000:fffd7000       .debug$S                   0000000180000000     iojs:node.dll
 0000:fffd7000       .debug$S                   0000000180000000     iojs:node.dll
 0000:fffd7000       .debug$S                   0000000180000000     iojs:node.dll
 0000:fffd7000       .debug$S                   0000000180000000     iojs:node.dll
 0000:fffd7000       .debug$S                   0000000180000000     iojs:node.dll
 0000:fffd7000       .debug$S                   0000000180000000     iojs:node.dll
 0000:fffd7000       .debug$S                   0000000180000000     iojs:node.dll
 0000:fffd7000       .debug$S                   0000000180000000     iojs:node.dll
 0000:fffd7000       .debug$S                   0000000180000000     kernel32:KERNEL32.dll
 0000:fffd7000       .debug$S                   0000000180000000     kernel32:KERNEL32.dll
 0000:fffd7000       .debug$S                   0000000180000000     iojs:node.dll
 0000:fffd7000       .debug$S                   0000000180000000     iojs:node.dll
 0000:fffd7000       .debug$S                   0000000180000000     iojs:node.dll
 0000:fffd7000       .debug$S                   0000000180000000     iojs:node.dll
 0000:fffd7000       .debug$S                   0000000180000000     iojs:node.dll
 0000:fffd7000       .debug$S                   0000000180000000     iojs:node.dll
 0000:fffd7000       .debug$S                   0000000180000000     iojs:node.dll
 0000:fffd7000       .debug$S                   0000000180000000     iojs:node.dll
 0000:fffd7000       .debug$S                   0000000180000000     iojs:node.dll
 0000:fffd7000       .debug$S                   0000000180000000     iojs:node.dll
 0000:fffd7000       .debug$S                   0000000180000000     crc64_ecma182.exp
 0000:fffd7000       .debug$S                   0000000180000000     iojs:node.dll
 0000:fffd7000       .debug$S                   0000000180000000     iojs:node.dll
 0000:fffd7000       .debug$S                   0000000180000000     kernel32:KERNEL32.dll
 0000:fffd7000       .debug$S                   0000000180000000     kernel32:KERNEL32.dll
 0000:fffd7000       .debug$S                   0000000180000000     kernel32:KERNEL32.dll
 0000:fffd7000       .debug$S                   0000000180000000     kernel32:KERNEL32.dll
 0000:fffd7000       .debug$S                   0000000180000000     kernel32:KERNEL32.dll
 0000:fffd7000       .debug$S                   0000000180000000     kernel32:KERNEL32.dll
 0000:fffd7000       .debug$S                   0000000180000000     kernel32:KERNEL32.dll
 0000:fffd7000       .debug$S                   0000000180000000     kernel32:KERNEL32.dll
 0000:fffd7000       .debug$S                   0000000180000000     kernel32:KERNEL32.dll
 0000:fffd7000       .debug$S                   0000000180000000     kernel32:KERNEL32.dll
 0000:fffd7000       .debug$S                   0000000180000000     kernel32:KERNEL32.dll
 0000:fffd7000       .debug$S                   0000000180000000     kernel32:KERNEL32.dll
 0000:fffd7000       .debug$S                   0000000180000000     kernel32:KERNEL32.dll
 0000:fffd7000       .debug$S                   0000000180000000     kernel32:KERNEL32.dll
 0000:fffd7000       .debug$S                   0000000180000000     kernel32:KERNEL32.dll
 0000:fffd7000       .debug$S                   0000000180000000     kernel32:KERNEL32.dll
 0000:fffd7000       .debug$S                   0000000180000000     kernel32:KERNEL32.dll
 0000:fffd7000       .debug$S                   0000000180000000     kernel32:KERNEL32.dll
 0000:fffd7000       .debug$S                   0000000180000000     kernel32:KERNEL32.dll
 0000:fffd7000       .debug$S                   0000000180000000     kernel32:KERNEL32.dll
 0000:fffd7000       .debug$S                   0000000180000000     kernel32:KERNEL32.dll
 0000:fffd7000       .debug$S                   0000000180000000     kernel32:KERNEL32.dll
 0000:fffd7000       .debug$S                   0000000180000000     kernel32:KERNEL32.dll
 0000:fffd7000       .debug$S                   0000000180000000     kernel32:KERNEL32.dll
 0000:fffd7000       .debug$S                   0000000180000000     kernel32:KERNEL32.dll
 0000:fffd7000       .debug$S                   0000000180000000     kernel32:KERNEL32.dll
 0000:fffd7000       .debug$S                   0000000180000000     kernel32:KERNEL32.dll
 0000:fffd7000       .debug$S                   0000000180000000     kernel32:KERNEL32.dll
 0000:fffd7000       .debug$S                   0000000180000000     kernel32:KERNEL32.dll
 0000:fffd7000       .debug$S                   0000000180000000     kernel32:KERNEL32.dll
 0000:fffd7000       .debug$S                   0000000180000000     kernel32:KERNEL32.dll
 0000:fffd7000       .debug$S                   0000000180000000     kernel32:KERNEL32.dll
 0000:fffd7000       .debug$S                   0000000180000000     kernel32:KERNEL32.dll
 0000:fffd7000       .debug$S                   0000000180000000     kernel32:KERNEL32.dll
 0000:fffd7000       .debug$S                   0000000180000000     kernel32:KERNEL32.dll
 0000:fffd7000       .debug$S                   0000000180000000     kernel32:KERNEL32.dll
 0000:fffd7000       .debug$S                   0000000180000000     kernel32:KERNEL32.dll
 0000:fffd7000       .debug$S                   0000000180000000     kernel32:KERNEL32.dll
 0000:fffd7000       .debug$S                   0000000180000000     kernel32:KERNEL32.dll
 0000:fffd7000       .debug$S                   0000000180000000     kernel32:KERNEL32.dll
 0000:fffd7000       .debug$S                   0000000180000000     kernel32:KERNEL32.dll
 0000:fffd7000       .debug$S                   0000000180000000     kernel32:KERNEL32.dll
 0000:fffd7000       .debug$S                   0000000180000000     kernel32:KERNEL32.dll
 0000:fffd7000       .debug$S                   0000000180000000     kernel32:KERNEL32.dll
 0000:fffd7000       .debug$S                   0000000180000000     kernel32:KERNEL32.dll
 0000:fffd7000       .debug$S                   0000000180000000     kernel32:KERNEL32.dll
 0000:fffd7000       .debug$S                   0000000180000000     kernel32:KERNEL32.dll
 0000:fffd7000       .debug$S                   0000000180000000     kernel32:KERNEL32.dll
 0000:fffd7000       .debug$S                   0000000180000000     kernel32:KERNEL32.dll
 0000:fffd7000       .debug$S                   0000000180000000     kernel32:KERNEL32.dll
 0000:fffd7000       .debug$S                   0000000180000000     kernel32:KERNEL32.dll
 0000:fffd7000       .debug$S                   0000000180000000     kernel32:KERNEL32.dll
 0000:fffd7000       .debug$S                   0000000180000000     kernel32:KERNEL32.dll
 0000:fffd7000       .debug$S                   0000000180000000     kernel32:KERNEL32.dll
 0000:fffd7000       .debug$S                   0000000180000000     kernel32:KERNEL32.dll
 0000:fffd7000       .debug$S                   0000000180000000     kernel32:KERNEL32.dll
 0000:fffd7000       .debug$S                   0000000180000000     kernel32:KERNEL32.dll
 0000:fffd7000       .debug$S                   0000000180000000     kernel32:KERNEL32.dll
 0000:fffd7000       .debug$S                   0000000180000000     kernel32:KERNEL32.dll
 0000:fffd7000       .debug$S                   0000000180000000     kernel32:KERNEL32.dll
 0000:fffd7000       .debug$S                   0000000180000000     kernel32:KERNEL32.dll
 0000:fffd7000       .debug$S                   0000000180000000     kernel32:KERNEL32.dll
 0000:fffd7000       .debug$S                   0000000180000000     kernel32:KERNEL32.dll
 0000:fffd7000       .debug$S                   0000000180000000     kernel32:KERNEL32.dll
 0000:fffd7000       .debug$S                   0000000180000000     kernel32:KERNEL32.dll
 0000:fffd7000       .debug$S                   0000000180000000     kernel32:KERNEL32.dll
 0000:fffd7000       .debug$S                   0000000180000000     kernel32:KERNEL32.dll
 0000:fffd7000       .debug$S                   0000000180000000     kernel32:KERNEL32.dll
 0000:fffd7000       .debug$S                   0000000180000000     kernel32:KERNEL32.dll
 0000:fffd7000       .debug$S                   0000000180000000     kernel32:KERNEL32.dll
 0000:fffd7000       .debug$S                   0000000180000000     kernel32:KERNEL32.dll
 0000:fffd7000       .debug$S                   0000000180000000     kernel32:KERNEL32.dll
 0000:fffd7000       .debug$S                   0000000180000000     kernel32:KERNEL32.dll
 0000:fffd7000       .debug$S                   0000000180000000     kernel32:KERNEL32.dll
 0000:fffd7000       .debug$S                   0000000180000000     kernel32:KERNEL32.dll
 0001:00000070       ?FunctionCallbackWrapper@imp@Nan@@YAXAEBV?$FunctionCallbackInfo@VValue@v8@@@v8@@@Z 0000000180001070 f   node_crc64_ecma_182.obj
 0001:000007a0       _register_crc64            00000001800017a0 f   node_crc64_ecma_182.obj
 0001:000007b0       ?crc64_init_@crc64js_base@@YAXQEAY0BAA@_K@Z 00000001800017b0 f   crc64_ecma182_base:crc64_ecma_182.obj
 0001:00000910       ?crc64_little@crc64js_base@@YA_K_KPEAX0@Z 0000000180001910 f   crc64_ecma182_base:crc64_ecma_182.obj
 0001:00000a40       $$000000                   0000000180001a40     LIBCMT:_amdsecgs_.obj
 0001:00000a74       ?dllmain_crt_dispatch@@YAHQEAUHINSTANCE__@@KQEAX@Z 0000000180001a74 f   LIBCMT:dll_dllmain.obj
 0001:00000ac4       ?dllmain_crt_process_attach@@YAHQEAUHINSTANCE__@@QEAX@Z 0000000180001ac4 f   LIBCMT:dll_dllmain.obj
 0001:00000bf0       ?dllmain_crt_process_detach@@YAH_N@Z 0000000180001bf0 f   LIBCMT:dll_dllmain.obj
 0001:00000c74       ?dllmain_dispatch@@YAHQEAUHINSTANCE__@@KQEAX@Z 0000000180001c74 f   LIBCMT:dll_dllmain.obj
 0001:00000d6c       ?dllmain_raw@@YAHQEAUHINSTANCE__@@KQEAX@Z 0000000180001d6c f   LIBCMT:dll_dllmain.obj
 0001:00000fb8       capture_current_context    0000000180001fb8 f   LIBCMT:gs_report.obj
 0001:00001028       capture_previous_context   0000000180002028 f   LIBCMT:gs_report.obj
 0001:00001c00       $$000000                   0000000180002c00     libvcruntime:memset.obj
 0001:00001cec       MsetTab                    0000000180002cec     libvcruntime:memset.obj
 0001:00001db0       $$000000                   0000000180002db0     libvcruntime:_jmpuwind_.obj
 0001:00002034       ?try_get_function@@YAPEAXW4function_id@?A0x679b24ab@@QEBDQEBW4module_id@2@2@Z 0000000180003034 f   libvcruntime:winapi_downlevel.obj
 0001:00003c8c       ?atexit_exception_filter@@YAHK@Z 0000000180004c8c f   libucrt:exit.obj
 0001:00003c98       ?common_exit@@YAXHW4_crt_exit_cleanup_mode@@W4_crt_exit_return_mode@@@Z 0000000180004c98 f   libucrt:exit.obj
 0001:00003e04       ?exit_or_terminate_process@@YAXI@Z 0000000180004e04 f   libucrt:exit.obj
 0001:00003e50       ?try_cor_exit_process@@YAXI@Z 0000000180004e50 f   libucrt:exit.obj
 0001:00003ee8       ??$parse_command_line@D@@YAXPEADPEAPEAD0PEA_K2@Z 0000000180004ee8 f   libucrt:argv_parsing.obj
 0001:00004280       ??$common_initialize_environment_nolock@D@@YAHXZ 0000000180005280 f   libucrt:environment_initialization.obj
 0001:000042ec       ??$create_environment@D@@YAQEAPEADQEAD@Z 00000001800052ec f   libucrt:environment_initialization.obj
 0001:000043e8       ??$free_environment@D@@YAXQEAPEAD@Z 00000001800053e8 f   libucrt:environment_initialization.obj
 0001:000043e8       ??$free_environment@_W@@YAXQEAPEA_W@Z 00000001800053e8 f   libucrt:environment_initialization.obj
 0001:0000442c       ??$uninitialize_environment_internal@D@@YAXAEAPEAPEAD@Z 000000018000542c f   libucrt:environment_initialization.obj
 0001:00004448       ??$uninitialize_environment_internal@_W@@YAXAEAPEAPEA_W@Z 0000000180005448 f   libucrt:environment_initialization.obj
 0001:00004680       ??R<lambda_4e60a939b0d047cfe11ddc22648dfba9>@@QEBAHXZ 0000000180005680 f   libucrt:onexit.obj
 0001:00004930       initialize_global_variables 0000000180005930 f   libucrt:initialization.obj
 0001:00004944       initialize_c               0000000180005944 f   libucrt:initialization.obj
 0001:00004968       uninitialize_environment   0000000180005968 f   libucrt:initialization.obj
 0001:00004978       initialize_pointers        0000000180005978 f   libucrt:initialization.obj
 0001:000049cc       uninitialize_vcruntime     00000001800059cc f   libucrt:initialization.obj
 0001:000049d4       uninitialize_allocated_memory 00000001800059d4 f   libucrt:initialization.obj
 0001:000052e0       ?internal_isupper_l@@YA_NHQEAU__crt_locale_pointers@@@Z 00000001800062e0 f   libucrt:tolower_toupper.obj
 0001:00005d14       ?construct_ptd_array@@YAXQEAU__acrt_ptd@@@Z 0000000180006d14 f   libucrt:per_thread_data.obj
 0001:00005de4       ?destroy_fls@@YAXPEAX@Z    0000000180006de4 f   libucrt:per_thread_data.obj
 0001:00005e04       ?destroy_ptd_array@@YAXQEAU__acrt_ptd@@@Z 0000000180006e04 f   libucrt:per_thread_data.obj
 0001:00005efc       ?replace_current_thread_locale_nolock@@YAXQEAU__acrt_ptd@@QEAU__crt_locale_data@@@Z 0000000180006efc f   libucrt:per_thread_data.obj
 0001:0000620c       ?fp_format_a@@YAHQEBNPEAD_KQEAD2H_NIQEAU__crt_locale_pointers@@@Z 000000018000720c f   libucrt:cvt.obj
 0001:0000656c       ?fp_format_e@@YAHQEBNQEAD_K12H_NIQEAU__crt_locale_pointers@@@Z 000000018000756c f   libucrt:cvt.obj
 0001:0000663c       ?fp_format_e_internal@@YAHQEAD_KH_NIQEAU_strflt@@2QEAU__crt_locale_pointers@@@Z 000000018000763c f   libucrt:cvt.obj
 0001:00006818       ?fp_format_f_internal@@YAHQEAD_KHQEAU_strflt@@_NQEAU__crt_locale_pointers@@@Z 0000000180007818 f   libucrt:cvt.obj
 0001:00006960       ?fp_format_g@@YAHQEBNQEAD_K12H_NIQEAU__crt_locale_pointers@@@Z 0000000180007960 f   libucrt:cvt.obj
 0001:00006a98       ?fp_format_nan_or_infinity@@YAHW4__acrt_fp_class@@_NPEAD_K1@Z 0000000180007a98 f   libucrt:cvt.obj
 0001:00007048       ?initialize_inherited_file_handles_nolock@@YAXXZ 0000000180008048 f   libucrt:ioinit.obj
 0001:00007134       ?initialize_stdio_handles_nolock@@YAXXZ 0000000180008134 f   libucrt:ioinit.obj
 0001:00007384       common_flush_all           0000000180008384 f   libucrt:fflush.obj
 0001:00007854       ?try_get_function@@YAPEAXW4function_id@?A0x63058377@@QEBDQEBW4module_id@2@2@Z 0000000180008854 f   libucrt:winapi_thunks.obj
 0001:00007e38       ?<helper_func_cdecl>@<lambda_2feae5270eb4d0d5532525f423405775>@@CAHPEBX0@Z 0000000180008e38 f   libucrt:argv_wildcards.obj
 0001:00007e4c       ??$common_expand_argv_wildcards@D@@YAHQEAPEADQEAPEAPEAD@Z 0000000180008e4c f   libucrt:argv_wildcards.obj
 0001:00008058       ??$copy_and_add_argument_to_buffer@D@@YAHQEBD0_KAEAV?$argument_list@D@?A0xca0879c4@@@Z 0000000180009058 f   libucrt:argv_wildcards.obj
 0001:00008168       ??$expand_argument_wildcards@D@@YAHQEAD0AEAV?$argument_list@D@?A0xca0879c4@@@Z 0000000180009168 f   libucrt:argv_wildcards.obj
 0001:0000841c       ??R<lambda_ad1ced32f4ac17aa236e5ef05d6b3b7c>@@QEBAXXZ 000000018000941c f   libucrt:mbctype.obj
 0001:00008634       ?getSystemCP@@YAHH@Z       0000000180009634 f   libucrt:mbctype.obj
 0001:000086b4       ?setSBCS@@YAXPEAU__crt_multibyte_data@@@Z 00000001800096b4 f   libucrt:mbctype.obj
 0001:00008744       ?setSBUpLow@@YAXPEAU__crt_multibyte_data@@@Z 0000000180009744 f   libucrt:mbctype.obj
 0001:00008928       ?setmbcp_internal@@YAHH_N@Z 0000000180009928 f   libucrt:mbctype.obj
 0001:00008e70       ?x_ismbbtype_l@@YAHPEAU__crt_locale_pointers@@IHH@Z 0000000180009e70 f   libucrt:ismbbyte.obj
 0001:00008f24       initialize_environment     0000000180009f24 f   libucrt:initialization.obj
 0001:00008f24       initialize_global_state_isolation 0000000180009f24 f   libucrt:initialization.obj
 0001:00008f24       uninitialize_c             0000000180009f24 f   libucrt:initialization.obj
 0001:00008f24       report_memory_leaks        0000000180009f24 f   libucrt:initialization.obj
 0001:00008f24       uninitialize_global_state_isolation 0000000180009f24 f   libucrt:initialization.obj
 0001:0000944c       ?__acrt_LCMapStringA_stat@@YAHPEAU__crt_locale_pointers@@PEB_WKPEBDHPEADHHH@Z 000000018000a44c f   libucrt:lcmapstringa.obj
 0001:0000b54c       memcpy_s                   000000018000c54c f   libucrt:cfout.obj
 0001:0000b8a0       ?free_crt_array_internal@@YAXQEAPEBX_K@Z 000000018000c8a0 f   libucrt:inittime.obj
 0001:0000bff0       ?write_double_translated_ansi_nolock@@YA?AUwrite_result@?A0x9c548279@@HQEBDI@Z 000000018000cff0 f   libucrt:write.obj
 0001:0000c1f8       ?write_text_ansi_nolock@@YA?AUwrite_result@?A0x9c548279@@HQEBDI@Z 000000018000d1f8 f   libucrt:write.obj
 0001:0000c300       ?write_text_utf16le_nolock@@YA?AUwrite_result@?A0x9c548279@@HQEBDI@Z 000000018000d300 f   libucrt:write.obj
 0001:0000c41c       ?write_text_utf8_nolock@@YA?AUwrite_result@?A0x9c548279@@HQEBDI@Z 000000018000d41c f   libucrt:write.obj
 0001:0000c960       ?GetTableIndexFromLocaleName@@YAHPEB_W@Z 000000018000d960 f   libucrt:lcidtoname_downlevel.obj
 0001:0000ca60       ?shortsort@@YAXPEAD0_KP6AHPEBX2@Z@Z 000000018000da60 f   libucrt:qsort.obj
 0001:0000d078       ?initialize_multibyte@@YAHXZ 000000018000e078 f   libucrt:multibyte_initializer.obj
 0001:0000d2f0       $$000000                   000000018000e2f0     libucrt:log10.obj
 0001:0000d89c       ??$common_lseek_nolock@_J@@YA_JH_JH@Z 000000018000e89c f   libucrt:lseek.obj
 0001:0000dbbc       common_control87           000000018000ebbc f   libucrt:ieee.obj
 0001:0000de54       _call_matherr              000000018000ee54 f   libucrt:libm_error.obj
 0001:0000debc       _exception_enabled         000000018000eebc f   libucrt:libm_error.obj
 0001:0000e150       _log_special_common        000000018000f150 f   libucrt:log_special.obj
 0001:0000e460       $$000000                   000000018000f460     libucrt:fpsr.obj
 0001:0000ea50       $$000000                   000000018000fa50     LIBCMT:_chkstk_.obj
 0001:0000eac0       $$000000                   000000018000fac0     libvcruntime:memcpy.obj
 0001:0000eb67       MoveSmall                  000000018000fb67     libvcruntime:memcpy.obj
 0001:0000f050       $$000000                   0000000180010050     libvcruntime:memcmp.obj
 0001:0000f130       $$000000                   0000000180010130     LIBCMT:_guard_dispatch_.obj
 0001:0000f150       ?fin$0@?0??dllmain_crt_process_attach@@YAHQEAUHINSTANCE__@@QEAX@Z@4HA 0000000180010150 f   LIBCMT:dll_dllmain.obj
 0001:0000f167       ?fin$0@?0??dllmain_crt_process_detach@@YAH_N@Z@4HA 0000000180010167 f   LIBCMT:dll_dllmain.obj
 0001:0000f183       ?filt$0@?0??dllmain_dispatch@@YAHQEAUHINSTANCE__@@KQEAX@Z@4HA 0000000180010183 f   LIBCMT:dll_dllmain.obj
 0001:0000f1b9       __scrt_is_nonwritable_in_current_image$filt$0 00000001800101b9 f   LIBCMT:utility.obj
 0001:0000f1d1       ?filt$0@?0??common_exit@@YAXHW4_crt_exit_cleanup_mode@@W4_crt_exit_return_mode@@@Z@4HA 00000001800101d1 f   libucrt:exit.obj
 0001:0000f1ec       ?fin$1@?0??common_exit@@YAXHW4_crt_exit_cleanup_mode@@W4_crt_exit_return_mode@@@Z@4HA 00000001800101ec f   libucrt:exit.obj
 0001:0000f205       ?fin$0@?0???$?RV<lambda_e24bbb7b643b32fcea6fa61b31d4c984>@@AEAV<lambda_275893d493268fdec8709772e3fcec0e>@@V<lambda_9d71df4d7cf3f480f8d633942495c3b0>@@@?$__crt_seh_guarded_call@H@@QEAAH$$QEAV<lambda_e24bbb7b643b32fcea6fa61b31d4c984>@@AEAV<lambda_275893d493268fdec8709772e3fcec0e>@@$$QEAV<lambda_9d71df4d7cf3f480f8d633942495c3b0>@@@Z@4HA 0000000180010205 f   libucrt:onexit.obj
 0001:0000f222       ?fin$0@?0???$?RV<lambda_5e887d1dcbef67a5eb4283622ba103bf>@@AEAV<lambda_4466841279450cc726390878d4a41900>@@V<lambda_341c25c0346d94847f1f3c463c57e077>@@@?$__crt_seh_guarded_call@X@@QEAAX$$QEAV<lambda_5e887d1dcbef67a5eb4283622ba103bf>@@AEAV<lambda_4466841279450cc726390878d4a41900>@@$$QEAV<lambda_341c25c0346d94847f1f3c463c57e077>@@@Z@4HA 0000000180010222 f   libucrt:per_thread_data.obj
 0001:0000f222       ?fin$0@?0???$?RV<lambda_46352004c1216016012b18bd6f87e700>@@AEAV<lambda_3bd07e1a1191394380780325891bf33f>@@V<lambda_334532d3f185bcaa59b5be82d7d22bff>@@@?$__crt_seh_guarded_call@X@@QEAAX$$QEAV<lambda_46352004c1216016012b18bd6f87e700>@@AEAV<lambda_3bd07e1a1191394380780325891bf33f>@@$$QEAV<lambda_334532d3f185bcaa59b5be82d7d22bff>@@@Z@4HA 0000000180010222 f   libucrt:per_thread_data.obj
 0001:0000f222       ?fin$0@?0???$?RV<lambda_c36588078e9f5dfd39652860aa6b3aaf>@@AEAV<lambda_ec61778202f4f5fc7e7711acc23c3bca>@@V<lambda_dc9d2797ccde5d239b4a0efae8ebd7db>@@@?$__crt_seh_guarded_call@P6AXH@Z@@QEAAP6AXH@Z$$QEAV<lambda_c36588078e9f5dfd39652860aa6b3aaf>@@AEAV<lambda_ec61778202f4f5fc7e7711acc23c3bca>@@$$QEAV<lambda_dc9d2797ccde5d239b4a0efae8ebd7db>@@@Z@4HA 0000000180010222 f   libucrt:signal.obj
 0001:0000f222       ?fin$0@?0???$?RV<lambda_b8c45f8f788dd370798f47cfe8ac3a86>@@AEAV<lambda_4e60a939b0d047cfe11ddc22648dfba9>@@V<lambda_332c3edc96d0294ec56c57d38c1cdfd5>@@@?$__crt_seh_guarded_call@H@@QEAAH$$QEAV<lambda_b8c45f8f788dd370798f47cfe8ac3a86>@@AEAV<lambda_4e60a939b0d047cfe11ddc22648dfba9>@@$$QEAV<lambda_332c3edc96d0294ec56c57d38c1cdfd5>@@@Z@4HA 0000000180010222 f   libucrt:onexit.obj
 0001:0000f222       ?fin$0@?0???$?RV<lambda_72d1df2b273a38828b1ce30cbf4cdab5>@@AEAV<lambda_876a65b173b8412d3a47c70a915b0cf4>@@V<lambda_41932305e351933ebe8f8be3ed8bb5dc>@@@?$__crt_seh_guarded_call@X@@QEAAX$$QEAV<lambda_72d1df2b273a38828b1ce30cbf4cdab5>@@AEAV<lambda_876a65b173b8412d3a47c70a915b0cf4>@@$$QEAV<lambda_41932305e351933ebe8f8be3ed8bb5dc>@@@Z@4HA 0000000180010222 f   libucrt:per_thread_data.obj
 0001:0000f222       ?fin$0@?0???$?RV<lambda_fb3a7dec4e47f37f22dae91bb15c9095>@@AEAV<lambda_698284760c8add0bfb0756c19673e34b>@@V<lambda_dfb8eca1e75fef3034a8fb18dd509707>@@@?$__crt_seh_guarded_call@X@@QEAAX$$QEAV<lambda_fb3a7dec4e47f37f22dae91bb15c9095>@@AEAV<lambda_698284760c8add0bfb0756c19673e34b>@@$$QEAV<lambda_dfb8eca1e75fef3034a8fb18dd509707>@@@Z@4HA 0000000180010222 f   libucrt:per_thread_data.obj
 0001:0000f222       ?fin$0@?0???$?RV<lambda_99476a1ad63dd22509b5d3e65b0ffc95>@@AEAV<lambda_ad1ced32f4ac17aa236e5ef05d6b3b7c>@@V<lambda_f7424dd8d45958661754dc4f2697e9c3>@@@?$__crt_seh_guarded_call@X@@QEAAX$$QEAV<lambda_99476a1ad63dd22509b5d3e65b0ffc95>@@AEAV<lambda_ad1ced32f4ac17aa236e5ef05d6b3b7c>@@$$QEAV<lambda_f7424dd8d45958661754dc4f2697e9c3>@@@Z@4HA 0000000180010222 f   libucrt:mbctype.obj
 0001:0000f23c       __acrt_uninitialize_locale$fin$0 000000018001023c f   libucrt:wsetlocale.obj
 0001:0000f23c       __acrt_update_thread_locale_data$fin$0 000000018001023c f   libucrt:locale_refcounting.obj
 0001:0000f255       common_flush_all$fin$0     0000000180010255 f   libucrt:fflush.obj
 0001:0000f26f       common_flush_all$fin$1     000000018001026f f   libucrt:fflush.obj
 0001:0000f288       raise$fin$0                0000000180010288 f   libucrt:signal.obj
 0001:0000f2ac       __acrt_update_thread_multibyte_data$fin$0 00000001800102ac f   libucrt:mbctype.obj
 0001:0000f2c5       _query_new_handler$fin$0   00000001800102c5 f   libucrt:new_handler.obj
 0001:0000f2db       _fcloseall$fin$0           00000001800102db f   libucrt:closeall.obj
 0001:0000f2f4       __acrt_initialize_lowio$fin$0 00000001800102f4 f   libucrt:ioinit.obj
 0001:0000f2f4       __acrt_lowio_ensure_fh_exists$fin$0 00000001800102f4 f   libucrt:osfinfo.obj
 0001:0000f30d       _write$fin$0               000000018001030d f   libucrt:write.obj
 0001:0000f324       fclose$fin$0               0000000180010324 f   libucrt:fclose.obj
 0001:0000f33c       ?fin$0@?0???$?RV<lambda_bfedae4ebbf01fab1bb6dcc6a9e276e0>@@AEAV<lambda_2fe9b910cf3cbf4a0ab98a02ba45b3ec>@@V<lambda_237c231691f317818eb88cc1d5d642d6>@@@?$__crt_seh_guarded_call@H@@QEAAH$$QEAV<lambda_bfedae4ebbf01fab1bb6dcc6a9e276e0>@@AEAV<lambda_2fe9b910cf3cbf4a0ab98a02ba45b3ec>@@$$QEAV<lambda_237c231691f317818eb88cc1d5d642d6>@@@Z@4HA 000000018001033c f   libucrt:close.obj
 0001:0000f33c       ?fin$0@?0???$?RV<lambda_b521505b218e5242e90febf6bfebc422>@@AEAV<lambda_6978c1fb23f02e42e1d9e99668cc68aa>@@V<lambda_314360699dd331753a4119843814e9a7>@@@?$__crt_seh_guarded_call@H@@QEAAH$$QEAV<lambda_b521505b218e5242e90febf6bfebc422>@@AEAV<lambda_6978c1fb23f02e42e1d9e99668cc68aa>@@$$QEAV<lambda_314360699dd331753a4119843814e9a7>@@@Z@4HA 000000018001033c f   libucrt:commit.obj
 0001:0000f356       _ctrlfp$filt$0             0000000180010356 f   libucrt:fpctrl.obj
 0001:0000f356       common_control87$filt$0    0000000180010356 f   libucrt:ieee.obj
 0001:0000f390       _IsNonwritableInCurrentImage$filt$0 0000000180010390 f   LIBCMT:pesect.obj
 0002:00000378       GS_ExceptionPointers       0000000180011378     LIBCMT:gs_report.obj
 0002:00000388       ?module_names@?A0x679b24ab@@3QBQEB_WB 0000000180011388     libvcruntime:winapi_downlevel.obj
 0002:00000458       ?candidate_modules@?1??try_get_FlsAlloc@@YAP6AKP6AXPEAX@Z@ZXZ@4QBW4module_id@?A0x679b24ab@@B 0000000180011458     libvcruntime:winapi_downlevel.obj
 0002:00000470       ?candidate_modules@?1??try_get_FlsFree@@YAP6AHK@ZXZ@4QBW4module_id@?A0x679b24ab@@B 0000000180011470     libvcruntime:winapi_downlevel.obj
 0002:00000480       ?candidate_modules@?1??try_get_FlsGetValue@@YAP6APEAXK@ZXZ@4QBW4module_id@?A0x679b24ab@@B 0000000180011480     libvcruntime:winapi_downlevel.obj
 0002:00000498       ?candidate_modules@?1??try_get_FlsSetValue@@YAP6AHKPEAX@ZXZ@4QBW4module_id@?A0x679b24ab@@B 0000000180011498     libvcruntime:winapi_downlevel.obj
 0002:000004b0       ?candidate_modules@?1??try_get_InitializeCriticalSectionEx@@YAP6AHPEAU_RTL_CRITICAL_SECTION@@KK@ZXZ@4QBW4module_id@?A0x679b24ab@@B 00000001800114b0     libvcruntime:winapi_downlevel.obj
 0002:000004e0       ?tokenTable@@3QBQEBDB      00000001800114e0     libvcruntime:undname.obj
 0002:00000550       ?nameTable@@3QBQEBDB       0000000180011550     libvcruntime:undname.obj
 0002:000007d8       ?rttiTable@@3QBQEBDB       00000001800117d8     libvcruntime:undname.obj
 0002:00000fe0       __acrt_initializers        0000000180011fe0     libucrt:initialization.obj
 0002:000010d0       errtable                   00000001800120d0     libucrt:errno.obj
 0002:00001910       module_names               0000000180012910     libucrt:winapi_thunks.obj
 0002:00001e40       ?candidate_modules@?1??try_get_FlsAlloc@@YAP6AKP6AXPEAX@Z@ZXZ@4QBW4module_id@?A0x63058377@@B 0000000180012e40     libucrt:winapi_thunks.obj
 0002:00001e48       ?candidate_modules@?1??try_get_FlsFree@@YAP6AHK@ZXZ@4QBW4module_id@?A0x63058377@@B 0000000180012e48     libucrt:winapi_thunks.obj
 0002:00001e50       ?candidate_modules@?1??try_get_FlsGetValue@@YAP6APEAXK@ZXZ@4QBW4module_id@?A0x63058377@@B 0000000180012e50     libucrt:winapi_thunks.obj
 0002:00001e58       ?candidate_modules@?1??try_get_FlsSetValue@@YAP6AHKPEAX@ZXZ@4QBW4module_id@?A0x63058377@@B 0000000180012e58     libucrt:winapi_thunks.obj
 0002:00001e60       ?candidate_modules@?1??try_get_GetCurrentPackageId@@YAP6AJPEAIPEAE@ZXZ@4QBW4module_id@?A0x63058377@@B 0000000180012e60     libucrt:winapi_thunks.obj
 0002:00001e80       ?candidate_modules@?1??try_get_InitializeCriticalSectionEx@@YAP6AHPEAU_RTL_CRITICAL_SECTION@@KK@ZXZ@4QBW4module_id@?A0x63058377@@B 0000000180012e80     libucrt:winapi_thunks.obj
 0002:00001e88       ?candidate_modules@?1??try_get_LCMapStringEx@@YAP6AHPEB_WK0HPEA_WHPEAU_nlsversioninfo@@PEAX_J@ZXZ@4QBW4module_id@?A0x63058377@@B 0000000180012e88     libucrt:winapi_thunks.obj
 0002:00001ea0       ?candidate_modules@?1??try_get_LocaleNameToLCID@@YAP6AKPEB_WK@ZXZ@4QBW4module_id@?A0x63058377@@B 0000000180012ea0     libucrt:winapi_thunks.obj
 0002:00001ec0       _mb_locale_names           0000000180012ec0     libucrt:mbctype.obj
 0002:00002f20       LcidToLocaleNameTable      0000000180013f20     libucrt:lcidtoname_downlevel.obj
 0002:00004980       LocaleNameToIndexTable     0000000180015980     libucrt:lcidtoname_downlevel.obj
 0002:00006220       __real_ninf                0000000180017220     libucrt:log10.obj
 0002:00006230       __real_inf                 0000000180017230     libucrt:log10.obj
 0002:00006240       __real_neg_qnan            0000000180017240     libucrt:log10.obj
 0002:00006250       __real_qnanbit             0000000180017250     libucrt:log10.obj
 0002:00006260       __int_1023                 0000000180017260     libucrt:log10.obj
 0002:00006270       __mask_001                 0000000180017270     libucrt:log10.obj
 0002:00006280       __mask_mant                0000000180017280     libucrt:log10.obj
 0002:00006290       __mask_mant_top8           0000000180017290     libucrt:log10.obj
 0002:000062a0       __mask_mant9               00000001800172a0     libucrt:log10.obj
 0002:000062b0       __real_log10_e             00000001800172b0     libucrt:log10.obj
 0002:000062c0       __real_log10_e_lead        00000001800172c0     libucrt:log10.obj
 0002:000062d0       __real_log10_e_tail        00000001800172d0     libucrt:log10.obj
 0002:000062e0       __real_log10_2_lead        00000001800172e0     libucrt:log10.obj
 0002:000062f0       __real_log10_2_tail        00000001800172f0     libucrt:log10.obj
 0002:00006300       __real_two                 0000000180017300     libucrt:log10.obj
 0002:00006310       __real_one                 0000000180017310     libucrt:log10.obj
 0002:00006320       __real_half                0000000180017320     libucrt:log10.obj
 0002:00006330       __mask_100                 0000000180017330     libucrt:log10.obj
 0002:00006340       __real_1_over_512          0000000180017340     libucrt:log10.obj
 0002:00006350       __real_1_over_2            0000000180017350     libucrt:log10.obj
 0002:00006360       __real_1_over_3            0000000180017360     libucrt:log10.obj
 0002:00006370       __real_1_over_4            0000000180017370     libucrt:log10.obj
 0002:00006380       __real_1_over_5            0000000180017380     libucrt:log10.obj
 0002:00006390       __real_1_over_6            0000000180017390     libucrt:log10.obj
 0002:000063a0       __real_neg_1023            00000001800173a0     libucrt:log10.obj
 0002:000063b0       __mask_2045                00000001800173b0     libucrt:log10.obj
 0002:000063c0       __real_threshold           00000001800173c0     libucrt:log10.obj
 0002:000063d0       __real_near_one_lt         00000001800173d0     libucrt:log10.obj
 0002:000063e0       __real_near_one_gt         00000001800173e0     libucrt:log10.obj
 0002:000063f0       __real_min_norm            00000001800173f0     libucrt:log10.obj
 0002:00006400       __real_notsign             0000000180017400     libucrt:log10.obj
 0002:00006410       __real_ca1                 0000000180017410     libucrt:log10.obj
 0002:00006420       __real_ca2                 0000000180017420     libucrt:log10.obj
 0002:00006430       __real_ca3                 0000000180017430     libucrt:log10.obj
 0002:00006440       __real_ca4                 0000000180017440     libucrt:log10.obj
 0002:00006450       __mask_lower               0000000180017450     libucrt:log10.obj
 0002:00006460       __flag_x_zero              0000000180017460     libucrt:log10.obj
 0002:00006464       __flag_x_neg               0000000180017464     libucrt:log10.obj
 0002:00006468       __flag_x_nan               0000000180017468     libucrt:log10.obj
 0002:00007cc0       __real@433fffffffffffff    0000000180018cc0     libucrt:fpsr.obj
 0002:00007cc8       __real@c33fffffffffffff    0000000180018cc8     libucrt:fpsr.obj
 0002:00008168       $unwind$sprintf            0000000180019168     node_crc64_ecma_182.obj
 0002:00008174       $unwind$?FunctionCallbackWrapper@imp@Nan@@YAXAEBV?$FunctionCallbackInfo@VValue@v8@@@v8@@@Z 0000000180019174     node_crc64_ecma_182.obj
 0002:00008184       $unwind$?New@?$Factory@VFunctionTemplate@v8@@@imp@Nan@@SA?AV?$Local@VFunctionTemplate@v8@@@v8@@P6AXAEBV?$FunctionCallbackInfo@VValue@v8@@@3@@ZV?$Local@VValue@v8@@@5@V?$Local@VSignature@v8@@@5@@Z 0000000180019184     node_crc64_ecma_182.obj
 0002:00008194       $chain$0$?New@?$Factory@VFunctionTemplate@v8@@@imp@Nan@@SA?AV?$Local@VFunctionTemplate@v8@@@v8@@P6AXAEBV?$FunctionCallbackInfo@VValue@v8@@@3@@ZV?$Local@VValue@v8@@@5@V?$Local@VSignature@v8@@@5@@Z 0000000180019194     node_crc64_ecma_182.obj
 0002:000081a8       $chain$1$?New@?$Factory@VFunctionTemplate@v8@@@imp@Nan@@SA?AV?$Local@VFunctionTemplate@v8@@@v8@@P6AXAEBV?$FunctionCallbackInfo@VValue@v8@@@3@@ZV?$Local@VValue@v8@@@5@V?$Local@VSignature@v8@@@5@@Z 00000001800191a8     node_crc64_ecma_182.obj
 0002:000081bc       $chain$2$?New@?$Factory@VFunctionTemplate@v8@@@imp@Nan@@SA?AV?$Local@VFunctionTemplate@v8@@@v8@@P6AXAEBV?$FunctionCallbackInfo@VValue@v8@@@3@@ZV?$Local@VValue@v8@@@5@V?$Local@VSignature@v8@@@5@@Z 00000001800191bc     node_crc64_ecma_182.obj
 0002:000081cc       $chain$3$?New@?$Factory@VFunctionTemplate@v8@@@imp@Nan@@SA?AV?$Local@VFunctionTemplate@v8@@@v8@@P6AXAEBV?$FunctionCallbackInfo@VValue@v8@@@3@@ZV?$Local@VValue@v8@@@5@V?$Local@VSignature@v8@@@5@@Z 00000001800191cc     node_crc64_ecma_182.obj
 0002:000081dc       $unwind$?Export@Nan@@YAXV?$Local@VObject@v8@@@v8@@PEBDP6AXAEBV?$FunctionCallbackInfo@VValue@v8@@@1@@Z@Z 00000001800191dc     node_crc64_ecma_182.obj
 0002:000081f0       $unwind$?CRC64@CRC64JS@@YAXAEBV?$FunctionCallbackInfo@VValue@v8@@@Nan@@@Z 00000001800191f0     node_crc64_ecma_182.obj
 0002:00008204       $unwind$?ToUInt64String@CRC64JS@@YAXAEBV?$FunctionCallbackInfo@VValue@v8@@@Nan@@@Z 0000000180019204     node_crc64_ecma_182.obj
 0002:0000821c       $unwind$?destroy_fls@@YAXPEAX@Z 000000018001921c     libucrt:per_thread_data.obj
 0002:0000821c       $unwind$?Init@CRC64JS@@YAXV?$Local@VObject@v8@@@v8@@@Z 000000018001921c     node_crc64_ecma_182.obj
 0002:0000821c       $unwind$__acrt_locale_free_lc_time_if_unreferenced 000000018001921c     libucrt:locale_refcounting.obj
 0002:0000821c       $unwind$__acrt_locale_free_numeric 000000018001921c     libucrt:initnum.obj
 0002:0000821c       $unwind$_free_base         000000018001921c     libucrt:free_base.obj
 0002:00008224       $unwind$?crc64_little@crc64js_base@@YA_K_KPEAX0@Z 0000000180019224     crc64_ecma182_base:crc64_ecma_182.obj
 0002:0000822c       $chain$0$?crc64_little@crc64js_base@@YA_K_KPEAX0@Z 000000018001922c     crc64_ecma182_base:crc64_ecma_182.obj
 0002:00008240       $chain$1$?crc64_little@crc64js_base@@YA_K_KPEAX0@Z 0000000180019240     crc64_ecma182_base:crc64_ecma_182.obj
 0002:00008250       $xdatasym                  0000000180019250     LIBCMT:_amdsecgs_.obj
 0002:00008254       $unwind$?dllmain_crt_process_attach@@YAHQEAUHINSTANCE__@@QEAX@Z 0000000180019254     LIBCMT:dll_dllmain.obj
 0002:00008280       $unwind$?dllmain_crt_process_detach@@YAH_N@Z 0000000180019280     LIBCMT:dll_dllmain.obj
 0002:000082a8       $unwind$?dllmain_dispatch@@YAHQEAUHINSTANCE__@@KQEAX@Z 00000001800192a8     LIBCMT:dll_dllmain.obj
 0002:000082d0       $unwind$?filt$0@?0??dllmain_dispatch@@YAHQEAUHINSTANCE__@@KQEAX@Z@4HA 00000001800192d0     LIBCMT:dll_dllmain.obj
 0002:000082d8       $unwind$__report_securityfailure 00000001800192d8     LIBCMT:gs_report.obj
 0002:000082e0       $unwind$capture_current_context 00000001800192e0     LIBCMT:gs_report.obj
 0002:000082ec       $unwind$capture_previous_context 00000001800192ec     LIBCMT:gs_report.obj
 0002:000082f8       $unwind$__scrt_is_nonwritable_in_current_image 00000001800192f8     LIBCMT:utility.obj
 0002:00008318       $unwind$__scrt_is_nonwritable_in_current_image$filt$0 0000000180019318     LIBCMT:utility.obj
 0002:00008320       $unwind$__acrt_fp_strflt_to_string 0000000180019320     libucrt:_fptostr.obj
 0002:00008320       $unwind$__raise_securityfailure 0000000180019320     LIBCMT:gs_report.obj
 0002:00008320       $unwind$_fflush_nolock     0000000180019320     libucrt:fflush.obj
 0002:00008320       $unwind$strcpy_s           0000000180019320     libucrt:strcpy_s.obj
 0002:00008320       $unwind$_setfpstatusword   0000000180019320     libucrt:_fenvutils.obj
 0002:00008320       $unwind$_calloc_base       0000000180019320     libucrt:calloc_base.obj
 0002:00008320       $unwind$uninitialize_allocated_memory 0000000180019320     libucrt:initialization.obj
 0002:00008320       $unwind$__std_type_info_destroy_list 0000000180019320     libvcruntime:std_type_info.obj
 0002:00008320       $unwind$fegetenv           0000000180019320     libucrt:fegetenv.obj
 0002:00008320       $unwind$?state_case_normal@?$output_processor@DV?$string_output_adapter@D@__crt_stdio_output@@V?$standard_base@DV?$string_output_adapter@D@__crt_stdio_output@@@2@@__crt_stdio_output@@AEAA_NXZ 0000000180019320     libucrt:output.obj
 0002:00008320       $unwind$feholdexcept       0000000180019320     libucrt:feholdexcept.obj
 0002:00008320       $unwind$__vcrt_uninitialize_locks 0000000180019320     libvcruntime:locks.obj
 0002:00008320       $unwind$fesetenv           0000000180019320     libucrt:fesetenv.obj
 0002:00008320       $unwind$__acrt_initialize_locks 0000000180019320     libucrt:locks.obj
 0002:00008320       $unwind$__acrt_update_multibyte_info 0000000180019320     libucrt:locale_update.obj
 0002:00008320       $unwind$??0?$output_processor@DV?$string_output_adapter@D@__crt_stdio_output@@V?$standard_base@DV?$string_output_adapter@D@__crt_stdio_output@@@2@@__crt_stdio_output@@QEAA@AEBV?$string_output_adapter@D@1@_KQEBDQEAU__crt_locale_pointers@@QEAD@Z 0000000180019320     libucrt:output.obj
 0002:00008320       $unwind$__scrt_uninitialize_crt 0000000180019320     LIBCMT:utility.obj
 0002:00008320       $unwind$__acrt_uninitialize_stdio 0000000180019320     libucrt:_file.obj
 0002:00008320       $unwind$__acrt_uninitialize_winapi_thunks 0000000180019320     libucrt:winapi_thunks.obj
 0002:00008320       $unwind$__acrt_allocate_buffer_for_argv 0000000180019320     libucrt:argv_parsing.obj
 0002:00008320       $unwind$__scrt_initialize_crt 0000000180019320     LIBCMT:utility.obj
 0002:00008320       $unwind$initialize_pointers 0000000180019320     libucrt:initialization.obj
 0002:00008320       $unwind$__scrt_release_startup_lock 0000000180019320     LIBCMT:utility.obj
 0002:00008320       $unwind$?type_case_integer@?$output_processor@DV?$string_output_adapter@D@__crt_stdio_output@@V?$standard_base@DV?$string_output_adapter@D@__crt_stdio_output@@@2@@__crt_stdio_output@@AEAA_NI_N@Z 0000000180019320     libucrt:output.obj
 0002:00008320       $unwind$__acrt_update_locale_info 0000000180019320     libucrt:locale_update.obj
 0002:00008320       $unwind$_clearfp           0000000180019320     libucrt:ieee.obj
 0002:00008320       $unwind$__acrt_uninitialize_locks 0000000180019320     libucrt:locks.obj
 0002:00008320       $unwind$__acrt_freeptd     0000000180019320     libucrt:per_thread_data.obj
 0002:00008320       $unwind$_onexit            0000000180019320     LIBCMT:utility.obj
 0002:00008320       $unwind$_set_statfp        0000000180019320     libucrt:fpctrl.obj
 0002:00008320       $unwind$__vcrt_freeptd     0000000180019320     libvcruntime:per_thread_data.obj
 0002:00008320       $unwind$_malloc_base       0000000180019320     libucrt:malloc_base.obj
 0002:00008320       $unwind$?exit_or_terminate_process@@YAXI@Z 0000000180019320     libucrt:exit.obj
 0002:00008320       $unwind$_clrfp             0000000180019320     libucrt:fpctrl.obj
 0002:00008320       $unwind$__vcrt_initialize_locks 0000000180019320     libvcruntime:locks.obj
 0002:00008320       $unwind$__acrt_stdio_free_buffer_nolock 0000000180019320     libucrt:_freebuf.obj
 0002:00008328       $unwind$__scrt_initialize_onexit_tables 0000000180019328     LIBCMT:utility.obj
 0002:00008334       $unwind$__security_init_cookie 0000000180019334     LIBCMT:gs_support.obj
 0002:00008340       $unwind$__scrt_fastfail    0000000180019340     LIBCMT:utility_desktop.obj
 0002:00008350       $unwind$__isa_available_init 0000000180019350     LIBCMT:_cpu_disp_.obj
 0002:00008360       $xdatasym                  0000000180019360     LIBCMT:_guard_dispatch_.obj
 0002:00008364       $unwind$__C_specific_handler 0000000180019364     libvcruntime:_chandler_.obj
 0002:00008380       $xdatasym                  0000000180019380     libvcruntime:memset.obj
 0002:00008388       $xdatasym                  0000000180019388     libvcruntime:_jmpuwind_.obj
 0002:0000839c       $unwind$?type_case_c_tchar@?$output_processor@DV?$string_output_adapter@D@__crt_stdio_output@@V?$standard_base@DV?$string_output_adapter@D@__crt_stdio_output@@@2@@__crt_stdio_output@@AEAA_ND@Z 000000018001939c     libucrt:output.obj
 0002:0000839c       $unwind$__acrt_invoke_user_matherr 000000018001939c     libucrt:matherr.obj
 0002:0000839c       $unwind$__acrt_errno_map_os_error 000000018001939c     libucrt:errno.obj
 0002:0000839c       $unwind$?internal_isupper_l@@YA_NHQEAU__crt_locale_pointers@@@Z 000000018001939c     libucrt:tolower_toupper.obj
 0002:0000839c       $unwind$_close_nolock      000000018001939c     libucrt:close.obj
 0002:0000839c       $unwind$strncpy_s          000000018001939c     libucrt:strncpy_s.obj
 0002:0000839c       $unwind$_updatetlocinfoEx_nolock 000000018001939c     libucrt:locale_refcounting.obj
 0002:0000839c       $unwind$?force_decimal_point@__crt_stdio_output@@YAXPEADQEAU__crt_locale_pointers@@@Z 000000018001939c     libucrt:output.obj
 0002:0000839c       $unwind$__acrt_FlsGetValue 000000018001939c     libucrt:winapi_thunks.obj
 0002:0000839c       $unwind$_callnewh          000000018001939c     libucrt:new_handler.obj
 0002:0000839c       $unwind$__acrt_FlsFree     000000018001939c     libucrt:winapi_thunks.obj
 0002:0000839c       $unwind$_fclose_nolock     000000018001939c     libucrt:fclose.obj
 0002:0000839c       $unwind$__acrt_FlsAlloc    000000018001939c     libucrt:winapi_thunks.obj
 0002:0000839c       $unwind$__vcrt_FlsGetValue 000000018001939c     libvcruntime:winapi_downlevel.obj
 0002:0000839c       $unwind$__acrt_uninitialize_lowio 000000018001939c     libucrt:ioinit.obj
 0002:0000839c       $unwind$__vcrt_FlsFree     000000018001939c     libvcruntime:winapi_downlevel.obj
 0002:0000839c       $unwind$__vcrt_FlsAlloc    000000018001939c     libvcruntime:winapi_downlevel.obj
 0002:0000839c       $unwind$_realloc_base      000000018001939c     libucrt:realloc_base.obj
 0002:0000839c       $unwind$??$common_initialize_environment_nolock@D@@YAHXZ 000000018001939c     libucrt:environment_initialization.obj
 0002:0000839c       $unwind$??0_LocaleUpdate@@QEAA@QEAU__crt_locale_pointers@@@Z 000000018001939c     libucrt:output.obj
 0002:0000839c       $unwind$?try_cor_exit_process@@YAXI@Z 000000018001939c     libucrt:exit.obj
 0002:0000839c       $unwind$__acrt_getptd      000000018001939c     libucrt:per_thread_data.obj
 0002:0000839c       $unwind$?replace_current_thread_locale_nolock@@YAXQEAU__acrt_ptd@@QEAU__crt_locale_data@@@Z 000000018001939c     libucrt:per_thread_data.obj
 0002:000083a8       $unwind$__vcrt_uninitialize_winapi_thunks 00000001800193a8     libvcruntime:winapi_downlevel.obj
 0002:000083b0       $unwind$__stdio_common_vsprintf 00000001800193b0     libucrt:output.obj
 0002:000083d4       $unwind$?process@?$output_processor@DV?$string_output_adapter@D@__crt_stdio_output@@V?$standard_base@DV?$string_output_adapter@D@__crt_stdio_output@@@2@@__crt_stdio_output@@QEAAHXZ 00000001800193d4     libucrt:output.obj
 0002:000083e4       $unwind$?parse_int_from_format_string@?$output_processor@DV?$string_output_adapter@D@__crt_stdio_output@@V?$standard_base@DV?$string_output_adapter@D@__crt_stdio_output@@@2@@__crt_stdio_output@@AEAA_NQEAH@Z 00000001800193e4     libucrt:output.obj
 0002:000083f8       $unwind$?state_case_type@?$output_processor@DV?$string_output_adapter@D@__crt_stdio_output@@V?$standard_base@DV?$string_output_adapter@D@__crt_stdio_output@@@2@@__crt_stdio_output@@AEAA_NXZ 00000001800193f8     libucrt:output.obj
 0002:00008410       $unwind$?type_case_a@?$output_processor@DV?$string_output_adapter@D@__crt_stdio_output@@V?$standard_base@DV?$string_output_adapter@D@__crt_stdio_output@@@2@@__crt_stdio_output@@AEAA_NXZ 0000000180019410     libucrt:output.obj
 0002:0000841c       $unwind$?write_stored_string_tchar@?$output_processor@DV?$string_output_adapter@D@__crt_stdio_output@@V?$standard_base@DV?$string_output_adapter@D@__crt_stdio_output@@@2@@__crt_stdio_output@@AEAA_ND@Z 000000018001941c     libucrt:output.obj
 0002:00008434       $unwind$??$write_multiple_characters@V?$string_output_adapter@D@__crt_stdio_output@@D@__crt_stdio_output@@YAXAEBV?$string_output_adapter@D@0@DHQEAH@Z 0000000180019434     libucrt:output.obj
 0002:00008434       $unwind$??$type_case_integer_parse_into_buffer@I@?$output_processor@DV?$string_output_adapter@D@__crt_stdio_output@@V?$standard_base@DV?$string_output_adapter@D@__crt_stdio_output@@@2@@__crt_stdio_output@@AEAAXII_N@Z 0000000180019434     libucrt:output.obj
 0002:00008434       $unwind$??$type_case_integer_parse_into_buffer@_K@?$output_processor@DV?$string_output_adapter@D@__crt_stdio_output@@V?$standard_base@DV?$string_output_adapter@D@__crt_stdio_output@@@2@@__crt_stdio_output@@AEAAX_KI_N@Z 0000000180019434     libucrt:output.obj
 0002:0000843c       $unwind$?common_exit@@YAXHW4_crt_exit_cleanup_mode@@W4_crt_exit_return_mode@@@Z 000000018001943c     libucrt:exit.obj
 0002:0000847c       $unwind$_configure_narrow_argv 000000018001947c     libucrt:argv_parsing.obj
 0002:00008490       $unwind$??R<lambda_4e60a939b0d047cfe11ddc22648dfba9>@@QEBAHXZ 0000000180019490     libucrt:onexit.obj
 0002:00008490       $unwind$?write_string@?$string_output_adapter@D@__crt_stdio_output@@QEBAXQEBDHQEAH1@Z 0000000180019490     libucrt:output.obj
 0002:00008490       $unwind$??$parse_command_line@D@@YAXPEADPEAPEAD0PEA_K2@Z 0000000180019490     libucrt:argv_parsing.obj
 0002:000084ac       $unwind$??$free_environment@D@@YAXQEAPEAD@Z 00000001800194ac     libucrt:environment_initialization.obj
 0002:000084ac       $unwind$??$free_environment@_W@@YAXQEAPEA_W@Z 00000001800194ac     libucrt:environment_initialization.obj
 0002:000084b8       $unwind$??$create_environment@D@@YAQEAPEADQEAD@Z 00000001800194b8     libucrt:environment_initialization.obj
 0002:000084d0       $unwind$_register_onexit_function 00000001800194d0     libucrt:onexit.obj
 0002:000084d8       $unwind$_execute_onexit_table 00000001800194d8     libucrt:onexit.obj
 0002:000084e0       $unwind$??$?RV<lambda_b8c45f8f788dd370798f47cfe8ac3a86>@@AEAV<lambda_4e60a939b0d047cfe11ddc22648dfba9>@@V<lambda_332c3edc96d0294ec56c57d38c1cdfd5>@@@?$__crt_seh_guarded_call@H@@QEAAH$$QEAV<lambda_b8c45f8f788dd370798f47cfe8ac3a86>@@AEAV<lambda_4e60a939b0d047cfe11ddc22648dfba9>@@$$QEAV<lambda_332c3edc96d0294ec56c57d38c1cdfd5>@@@Z 00000001800194e0     libucrt:onexit.obj
 0002:00008504       $unwind$??$?RV<lambda_e24bbb7b643b32fcea6fa61b31d4c984>@@AEAV<lambda_275893d493268fdec8709772e3fcec0e>@@V<lambda_9d71df4d7cf3f480f8d633942495c3b0>@@@?$__crt_seh_guarded_call@H@@QEAAH$$QEAV<lambda_e24bbb7b643b32fcea6fa61b31d4c984>@@AEAV<lambda_275893d493268fdec8709772e3fcec0e>@@$$QEAV<lambda_9d71df4d7cf3f480f8d633942495c3b0>@@@Z 0000000180019504     libucrt:onexit.obj
 0002:00008534       $unwind$terminate          0000000180019534     libucrt:terminate.obj
 0002:00008554       $unwind$??$parse_integer@KV?$c_string_character_source@D@__crt_strtox@@@__crt_strtox@@YAKQEAU__crt_locale_pointers@@V?$c_string_character_source@D@0@H_N@Z 0000000180019554     libucrt:atox.obj
 0002:00008570       $unwind$_log10_special     0000000180019570     libucrt:log_special.obj
 0002:00008570       $unwind$_invalid_parameter_noinfo 0000000180019570     libucrt:invalid_parameter.obj
 0002:00008570       $unwind$wctomb_s           0000000180019570     libucrt:wctomb.obj
 0002:00008578       $unwind$__acrt_call_reportfault 0000000180019578     libucrt:invalid_parameter.obj
 0002:00008598       $unwind$_invalid_parameter 0000000180019598     libucrt:invalid_parameter.obj
 0002:000085b0       $unwind$_tolower_l         00000001800195b0     libucrt:tolower_toupper.obj
 0002:000085c0       $unwind$strtol             00000001800195c0     libucrt:strtox.obj
 0002:000085c8       $unwind$_mbtowc_l          00000001800195c8     libucrt:mbtowc.obj
 0002:000085c8       $unwind$__acrt_LCMapStringEx 00000001800195c8     libucrt:winapi_thunks.obj
 0002:000085e0       $unwind$_wctomb_s_l        00000001800195e0     libucrt:wctomb.obj
 0002:000085f0       $unwind$strnlen            00000001800195f0     libucrt:strnlen.obj
 0002:000085f0       $unwind$wcsnlen            00000001800195f0     libucrt:strnlen.obj
 0002:000085f8       $unwind$?construct_ptd_array@@YAXQEAU__acrt_ptd@@@Z 00000001800195f8     libucrt:per_thread_data.obj
 0002:00008600       $unwind$?destroy_ptd_array@@YAXQEAU__acrt_ptd@@@Z 0000000180019600     libucrt:per_thread_data.obj
 0002:00008608       $unwind$??$?RV<lambda_72d1df2b273a38828b1ce30cbf4cdab5>@@AEAV<lambda_876a65b173b8412d3a47c70a915b0cf4>@@V<lambda_41932305e351933ebe8f8be3ed8bb5dc>@@@?$__crt_seh_guarded_call@X@@QEAAX$$QEAV<lambda_72d1df2b273a38828b1ce30cbf4cdab5>@@AEAV<lambda_876a65b173b8412d3a47c70a915b0cf4>@@$$QEAV<lambda_41932305e351933ebe8f8be3ed8bb5dc>@@@Z 0000000180019608     libucrt:per_thread_data.obj
 0002:0000862c       $unwind$??$?RV<lambda_5e887d1dcbef67a5eb4283622ba103bf>@@AEAV<lambda_4466841279450cc726390878d4a41900>@@V<lambda_341c25c0346d94847f1f3c463c57e077>@@@?$__crt_seh_guarded_call@X@@QEAAX$$QEAV<lambda_5e887d1dcbef67a5eb4283622ba103bf>@@AEAV<lambda_4466841279450cc726390878d4a41900>@@$$QEAV<lambda_341c25c0346d94847f1f3c463c57e077>@@@Z 000000018001962c     libucrt:per_thread_data.obj
 0002:00008650       $unwind$??$?RV<lambda_46352004c1216016012b18bd6f87e700>@@AEAV<lambda_3bd07e1a1191394380780325891bf33f>@@V<lambda_334532d3f185bcaa59b5be82d7d22bff>@@@?$__crt_seh_guarded_call@X@@QEAAX$$QEAV<lambda_46352004c1216016012b18bd6f87e700>@@AEAV<lambda_3bd07e1a1191394380780325891bf33f>@@$$QEAV<lambda_334532d3f185bcaa59b5be82d7d22bff>@@@Z 0000000180019650     libucrt:per_thread_data.obj
 0002:00008674       $unwind$??$?RV<lambda_fb3a7dec4e47f37f22dae91bb15c9095>@@AEAV<lambda_698284760c8add0bfb0756c19673e34b>@@V<lambda_dfb8eca1e75fef3034a8fb18dd509707>@@@?$__crt_seh_guarded_call@X@@QEAAX$$QEAV<lambda_fb3a7dec4e47f37f22dae91bb15c9095>@@AEAV<lambda_698284760c8add0bfb0756c19673e34b>@@$$QEAV<lambda_dfb8eca1e75fef3034a8fb18dd509707>@@@Z 0000000180019674     libucrt:per_thread_data.obj
 0002:00008698       $unwind$__acrt_fp_format   0000000180019698     libucrt:cvt.obj
 0002:000086b4       $unwind$?fp_format_nan_or_infinity@@YAHW4__acrt_fp_class@@_NPEAD_K1@Z 00000001800196b4     libucrt:cvt.obj
 0002:000086c8       $unwind$?fp_format_e_internal@@YAHQEAD_KH_NIQEAU_strflt@@2QEAU__crt_locale_pointers@@@Z 00000001800196c8     libucrt:cvt.obj
 0002:000086e0       $unwind$?fp_format_e@@YAHQEBNQEAD_K12H_NIQEAU__crt_locale_pointers@@@Z 00000001800196e0     libucrt:cvt.obj
 0002:000086f4       $unwind$?fp_format_a@@YAHQEBNPEAD_KQEAD2H_NIQEAU__crt_locale_pointers@@@Z 00000001800196f4     libucrt:cvt.obj
 0002:00008710       $unwind$__dcrt_get_narrow_environment_from_os 0000000180019710     libucrt:get_environment_from_os.obj
 0002:00008710       $unwind$?fp_format_f_internal@@YAHQEAD_KHQEAU_strflt@@_NQEAU__crt_locale_pointers@@@Z 0000000180019710     libucrt:cvt.obj
 0002:00008728       $unwind$?fp_format_g@@YAHQEBNQEAD_K12H_NIQEAU__crt_locale_pointers@@@Z 0000000180019728     libucrt:cvt.obj
 0002:0000873c       $unwind$_initterm          000000018001973c     libucrt:initterm.obj
 0002:0000873c       $unwind$__acrt_initialize_stdio 000000018001973c     libucrt:_file.obj
 0002:00008754       $unwind$__acrt_uninitialize_locale 0000000180019754     libucrt:wsetlocale.obj
 0002:00008774       $unwind$__acrt_initialize_lowio 0000000180019774     libucrt:ioinit.obj
 0002:00008794       $unwind$?initialize_inherited_file_handles_nolock@@YAXXZ 0000000180019794     libucrt:ioinit.obj
 0002:000087b0       $unwind$?initialize_stdio_handles_nolock@@YAXXZ 00000001800197b0     libucrt:ioinit.obj
 0002:000087b0       $unwind$_free_osfhnd       00000001800197b0     libucrt:osfinfo.obj
 0002:000087c4       $unwind$common_flush_all   00000001800197c4     libucrt:fflush.obj
 0002:00008800       $unwind$__acrt_get_sigabrt_handler 0000000180019800     libucrt:signal.obj
 0002:00008808       $unwind$raise              0000000180019808     libucrt:signal.obj
 0002:00008834       $unwind$??$?RV<lambda_c36588078e9f5dfd39652860aa6b3aaf>@@AEAV<lambda_ec61778202f4f5fc7e7711acc23c3bca>@@V<lambda_dc9d2797ccde5d239b4a0efae8ebd7db>@@@?$__crt_seh_guarded_call@P6AXH@Z@@QEAAP6AXH@Z$$QEAV<lambda_c36588078e9f5dfd39652860aa6b3aaf>@@AEAV<lambda_ec61778202f4f5fc7e7711acc23c3bca>@@$$QEAV<lambda_dc9d2797ccde5d239b4a0efae8ebd7db>@@@Z 0000000180019834     libucrt:signal.obj
 0002:00008858       $unwind$__acrt_initialize_winapi_thunks 0000000180019858     libucrt:winapi_thunks.obj
 0002:00008860       $unwind$__acrt_is_packaged_app 0000000180019860     libucrt:winapi_thunks.obj
 0002:0000886c       $unwind$?try_get_function@@YAPEAXW4function_id@?A0x679b24ab@@QEBDQEBW4module_id@2@2@Z 000000018001986c     libvcruntime:winapi_downlevel.obj
 0002:0000886c       $unwind$?try_get_function@@YAPEAXW4function_id@?A0x63058377@@QEBDQEBW4module_id@2@2@Z 000000018001986c     libucrt:winapi_thunks.obj
 0002:00008888       $unwind$??$common_expand_argv_wildcards@D@@YAHQEAPEADQEAPEAPEAD@Z 0000000180019888     libucrt:argv_wildcards.obj
 0002:000088a0       $unwind$__vcrt_InitializeCriticalSectionEx 00000001800198a0     libvcruntime:winapi_downlevel.obj
 0002:000088a0       $unwind$_recalloc_base     00000001800198a0     libucrt:recalloc.obj
 0002:000088a0       $unwind$__acrt_execute_initializers 00000001800198a0     libucrt:shared_initialization.obj
 0002:000088a0       $unwind$?dllmain_raw@@YAHQEAUHINSTANCE__@@KQEAX@Z 00000001800198a0     LIBCMT:dll_dllmain.obj
 0002:000088a0       $unwind$__scrt_dllmain_exception_filter 00000001800198a0     LIBCMT:utility.obj
 0002:000088a0       $unwind$_seh_filter_exe    00000001800198a0     libucrt:exception_filter.obj
 0002:000088a0       $unwind$??$ensure_buffer_is_big_enough@D@formatting_buffer@__crt_stdio_output@@QEAA_N_K@Z 00000001800198a0     libucrt:output.obj
 0002:000088a0       $unwind$__acrt_free_locale 00000001800198a0     libucrt:locale_refcounting.obj
 0002:000088a0       $unwind$__acrt_InitializeCriticalSectionEx 00000001800198a0     libucrt:winapi_thunks.obj
 0002:000088a0       $unwind$__acrt_lowio_create_handle_array 00000001800198a0     libucrt:osfinfo.obj
 0002:000088a0       $unwind$?expand_if_necessary@?$argument_list@D@?A0xca0879c4@@AEAAHXZ 00000001800198a0     libucrt:argv_wildcards.obj
 0002:000088a0       $unwind$?setSBCS@@YAXPEAU__crt_multibyte_data@@@Z 00000001800198a0     libucrt:mbctype.obj
 0002:000088b4       $unwind$??$copy_and_add_argument_to_buffer@D@@YAHQEBD0_KAEAV?$argument_list@D@?A0xca0879c4@@@Z 00000001800198b4     libucrt:argv_wildcards.obj
 0002:000088d0       $unwind$??$expand_argument_wildcards@D@@YAHQEAD0AEAV?$argument_list@D@?A0xca0879c4@@@Z 00000001800198d0     libucrt:argv_wildcards.obj
 0002:000088f0       $unwind$__acrt_update_thread_multibyte_data 00000001800198f0     libucrt:mbctype.obj
 0002:00008914       $unwind$__acrt_initialize_lowio$fin$0 0000000180019914     libucrt:ioinit.obj
 0002:00008914       $unwind$__acrt_update_thread_locale_data$fin$0 0000000180019914     libucrt:locale_refcounting.obj
 0002:00008914       $unwind$_IsNonwritableInCurrentImage$filt$0 0000000180019914     LIBCMT:pesect.obj
 0002:00008914       $unwind$?fin$1@?0??common_exit@@YAXHW4_crt_exit_cleanup_mode@@W4_crt_exit_return_mode@@@Z@4HA 0000000180019914     libucrt:exit.obj
 0002:00008914       $unwind$_query_new_handler$fin$0 0000000180019914     libucrt:new_handler.obj
 0002:00008914       $unwind$?fin$0@?0??dllmain_crt_process_attach@@YAHQEAUHINSTANCE__@@QEAX@Z@4HA 0000000180019914     LIBCMT:dll_dllmain.obj
 0002:00008914       $unwind$?fin$0@?0??dllmain_crt_process_detach@@YAH_N@Z@4HA 0000000180019914     LIBCMT:dll_dllmain.obj
 0002:00008914       $unwind$?filt$0@?0??common_exit@@YAXHW4_crt_exit_cleanup_mode@@W4_crt_exit_return_mode@@@Z@4HA 0000000180019914     libucrt:exit.obj
 0002:00008914       $unwind$_ctrlfp$filt$0     0000000180019914     libucrt:fpctrl.obj
 0002:00008914       $unwind$?fin$0@?0???$?RV<lambda_fb3a7dec4e47f37f22dae91bb15c9095>@@AEAV<lambda_698284760c8add0bfb0756c19673e34b>@@V<lambda_dfb8eca1e75fef3034a8fb18dd509707>@@@?$__crt_seh_guarded_call@X@@QEAAX$$QEAV<lambda_fb3a7dec4e47f37f22dae91bb15c9095>@@AEAV<lambda_698284760c8add0bfb0756c19673e34b>@@$$QEAV<lambda_dfb8eca1e75fef3034a8fb18dd509707>@@@Z@4HA 0000000180019914     libucrt:per_thread_data.obj
 0002:00008914       $unwind$?fin$0@?0???$?RV<lambda_46352004c1216016012b18bd6f87e700>@@AEAV<lambda_3bd07e1a1191394380780325891bf33f>@@V<lambda_334532d3f185bcaa59b5be82d7d22bff>@@@?$__crt_seh_guarded_call@X@@QEAAX$$QEAV<lambda_46352004c1216016012b18bd6f87e700>@@AEAV<lambda_3bd07e1a1191394380780325891bf33f>@@$$QEAV<lambda_334532d3f185bcaa59b5be82d7d22bff>@@@Z@4HA 0000000180019914     libucrt:per_thread_data.obj
 0002:00008914       $unwind$__acrt_update_thread_multibyte_data$fin$0 0000000180019914     libucrt:mbctype.obj
 0002:00008914       $unwind$__acrt_uninitialize_locale$fin$0 0000000180019914     libucrt:wsetlocale.obj
 0002:00008914       $unwind$?fin$0@?0???$?RV<lambda_e24bbb7b643b32fcea6fa61b31d4c984>@@AEAV<lambda_275893d493268fdec8709772e3fcec0e>@@V<lambda_9d71df4d7cf3f480f8d633942495c3b0>@@@?$__crt_seh_guarded_call@H@@QEAAH$$QEAV<lambda_e24bbb7b643b32fcea6fa61b31d4c984>@@AEAV<lambda_275893d493268fdec8709772e3fcec0e>@@$$QEAV<lambda_9d71df4d7cf3f480f8d633942495c3b0>@@@Z@4HA 0000000180019914     libucrt:onexit.obj
 0002:00008914       $unwind$?fin$0@?0???$?RV<lambda_5e887d1dcbef67a5eb4283622ba103bf>@@AEAV<lambda_4466841279450cc726390878d4a41900>@@V<lambda_341c25c0346d94847f1f3c463c57e077>@@@?$__crt_seh_guarded_call@X@@QEAAX$$QEAV<lambda_5e887d1dcbef67a5eb4283622ba103bf>@@AEAV<lambda_4466841279450cc726390878d4a41900>@@$$QEAV<lambda_341c25c0346d94847f1f3c463c57e077>@@@Z@4HA 0000000180019914     libucrt:per_thread_data.obj
 0002:00008914       $unwind$?fin$0@?0???$?RV<lambda_b8c45f8f788dd370798f47cfe8ac3a86>@@AEAV<lambda_4e60a939b0d047cfe11ddc22648dfba9>@@V<lambda_332c3edc96d0294ec56c57d38c1cdfd5>@@@?$__crt_seh_guarded_call@H@@QEAAH$$QEAV<lambda_b8c45f8f788dd370798f47cfe8ac3a86>@@AEAV<lambda_4e60a939b0d047cfe11ddc22648dfba9>@@$$QEAV<lambda_332c3edc96d0294ec56c57d38c1cdfd5>@@@Z@4HA 0000000180019914     libucrt:onexit.obj
 0002:00008914       $unwind$?fin$0@?0???$?RV<lambda_72d1df2b273a38828b1ce30cbf4cdab5>@@AEAV<lambda_876a65b173b8412d3a47c70a915b0cf4>@@V<lambda_41932305e351933ebe8f8be3ed8bb5dc>@@@?$__crt_seh_guarded_call@X@@QEAAX$$QEAV<lambda_72d1df2b273a38828b1ce30cbf4cdab5>@@AEAV<lambda_876a65b173b8412d3a47c70a915b0cf4>@@$$QEAV<lambda_41932305e351933ebe8f8be3ed8bb5dc>@@@Z@4HA 0000000180019914     libucrt:per_thread_data.obj
 0002:00008914       $unwind$?fin$0@?0???$?RV<lambda_c36588078e9f5dfd39652860aa6b3aaf>@@AEAV<lambda_ec61778202f4f5fc7e7711acc23c3bca>@@V<lambda_dc9d2797ccde5d239b4a0efae8ebd7db>@@@?$__crt_seh_guarded_call@P6AXH@Z@@QEAAP6AXH@Z$$QEAV<lambda_c36588078e9f5dfd39652860aa6b3aaf>@@AEAV<lambda_ec61778202f4f5fc7e7711acc23c3bca>@@$$QEAV<lambda_dc9d2797ccde5d239b4a0efae8ebd7db>@@@Z@4HA 0000000180019914     libucrt:signal.obj
 0002:00008914       $unwind$__acrt_lowio_ensure_fh_exists$fin$0 0000000180019914     libucrt:osfinfo.obj
 0002:00008914       $unwind$?fin$0@?0???$?RV<lambda_bfedae4ebbf01fab1bb6dcc6a9e276e0>@@AEAV<lambda_2fe9b910cf3cbf4a0ab98a02ba45b3ec>@@V<lambda_237c231691f317818eb88cc1d5d642d6>@@@?$__crt_seh_guarded_call@H@@QEAAH$$QEAV<lambda_bfedae4ebbf01fab1bb6dcc6a9e276e0>@@AEAV<lambda_2fe9b910cf3cbf4a0ab98a02ba45b3ec>@@$$QEAV<lambda_237c231691f317818eb88cc1d5d642d6>@@@Z@4HA 0000000180019914     libucrt:close.obj
 0002:00008914       $unwind$_fcloseall$fin$0   0000000180019914     libucrt:closeall.obj
 0002:00008914       $unwind$?fin$0@?0???$?RV<lambda_99476a1ad63dd22509b5d3e65b0ffc95>@@AEAV<lambda_ad1ced32f4ac17aa236e5ef05d6b3b7c>@@V<lambda_f7424dd8d45958661754dc4f2697e9c3>@@@?$__crt_seh_guarded_call@X@@QEAAX$$QEAV<lambda_99476a1ad63dd22509b5d3e65b0ffc95>@@AEAV<lambda_ad1ced32f4ac17aa236e5ef05d6b3b7c>@@$$QEAV<lambda_f7424dd8d45958661754dc4f2697e9c3>@@@Z@4HA 0000000180019914     libucrt:mbctype.obj
 0002:00008914       $unwind$raise$fin$0        0000000180019914     libucrt:signal.obj
 0002:00008914       $unwind$_write$fin$0       0000000180019914     libucrt:write.obj
 0002:00008914       $unwind$fclose$fin$0       0000000180019914     libucrt:fclose.obj
 0002:00008914       $unwind$common_control87$filt$0 0000000180019914     libucrt:ieee.obj
 0002:00008914       $unwind$?fin$0@?0???$?RV<lambda_b521505b218e5242e90febf6bfebc422>@@AEAV<lambda_6978c1fb23f02e42e1d9e99668cc68aa>@@V<lambda_314360699dd331753a4119843814e9a7>@@@?$__crt_seh_guarded_call@H@@QEAAH$$QEAV<lambda_b521505b218e5242e90febf6bfebc422>@@AEAV<lambda_6978c1fb23f02e42e1d9e99668cc68aa>@@$$QEAV<lambda_314360699dd331753a4119843814e9a7>@@@Z@4HA 0000000180019914     libucrt:commit.obj
 0002:00008914       $unwind$common_flush_all$fin$0 0000000180019914     libucrt:fflush.obj
 0002:00008914       $unwind$common_flush_all$fin$1 0000000180019914     libucrt:fflush.obj
 0002:0000891c       $unwind$_setmbcp_nolock    000000018001991c     libucrt:mbctype.obj
 0002:0000893c       $unwind$?setSBUpLow@@YAXPEAU__crt_multibyte_data@@@Z 000000018001993c     libucrt:mbctype.obj
 0002:00008958       $unwind$?setmbcp_internal@@YAHH_N@Z 0000000180019958     libucrt:mbctype.obj
 0002:00008968       $unwind$??$?RV<lambda_99476a1ad63dd22509b5d3e65b0ffc95>@@AEAV<lambda_ad1ced32f4ac17aa236e5ef05d6b3b7c>@@V<lambda_f7424dd8d45958661754dc4f2697e9c3>@@@?$__crt_seh_guarded_call@X@@QEAAX$$QEAV<lambda_99476a1ad63dd22509b5d3e65b0ffc95>@@AEAV<lambda_ad1ced32f4ac17aa236e5ef05d6b3b7c>@@$$QEAV<lambda_f7424dd8d45958661754dc4f2697e9c3>@@@Z 0000000180019968     libucrt:mbctype.obj
 0002:0000898c       $unwind$?x_ismbbtype_l@@YAHPEAU__crt_locale_pointers@@IHH@Z 000000018001998c     libucrt:ismbbyte.obj
 0002:0000899c       $unwind$_query_new_handler 000000018001999c     libucrt:new_handler.obj
 0002:000089bc       $unwind$_isctype_l         00000001800199bc     libucrt:isctype.obj
 0002:000089d8       $unwind$isdigit            00000001800199d8     libucrt:_ctype.obj
 0002:000089d8       $unwind$?getSystemCP@@YAHH@Z 00000001800199d8     libucrt:mbctype.obj
 0002:000089d8       $unwind$_isleadbyte_l      00000001800199d8     libucrt:_wctype.obj
 0002:000089e0       $unwind$__acrt_LCMapStringA 00000001800199e0     libucrt:lcmapstringa.obj
 0002:000089f0       $unwind$?__acrt_LCMapStringA_stat@@YAHPEAU__crt_locale_pointers@@PEB_WKPEBDHPEADHHH@Z 00000001800199f0     libucrt:lcmapstringa.obj
 0002:00008a18       $unwind$__acrt_update_thread_locale_data 0000000180019a18     libucrt:locale_refcounting.obj
 0002:00008a3c       $unwind$memcpy_s           0000000180019a3c     libucrt:cfout.obj
 0002:00008a3c       $unwind$__acrt_getptd_noexit 0000000180019a3c     libucrt:per_thread_data.obj
 0002:00008a3c       $unwind$__vcrt_getptd_noexit 0000000180019a3c     libvcruntime:per_thread_data.obj
 0002:00008a3c       $unwind$__acrt_stdio_flush_nolock 0000000180019a3c     libucrt:fflush.obj
 0002:00008a3c       $unwind$__acrt_FlsSetValue 0000000180019a3c     libucrt:winapi_thunks.obj
 0002:00008a3c       $unwind$__acrt_execute_uninitializers 0000000180019a3c     libucrt:shared_initialization.obj
 0002:00008a3c       $unwind$??R<lambda_ad1ced32f4ac17aa236e5ef05d6b3b7c>@@QEBAXXZ 0000000180019a3c     libucrt:mbctype.obj
 0002:00008a3c       $unwind$_DllMainCRTStartup 0000000180019a3c     LIBCMT:dll_dllmain.obj
 0002:00008a3c       $unwind$__acrt_LocaleNameToLCID 0000000180019a3c     libucrt:winapi_thunks.obj
 0002:00008a3c       $unwind$__vcrt_FlsSetValue 0000000180019a3c     libvcruntime:winapi_downlevel.obj
 0002:00008a3c       $unwind$_initterm_e        0000000180019a3c     libucrt:initterm.obj
 0002:00008a3c       $unwind$_exception_enabled 0000000180019a3c     libucrt:libm_error.obj
 0002:00008a3c       $unwind$??$common_lseek_nolock@_J@@YA_JH_JH@Z 0000000180019a3c     libucrt:lseek.obj
 0002:00008a3c       $unwind$?type_case_n@?$output_processor@DV?$string_output_adapter@D@__crt_stdio_output@@V?$standard_base@DV?$string_output_adapter@D@__crt_stdio_output@@@2@@__crt_stdio_output@@AEAA_NXZ 0000000180019a3c     libucrt:output.obj
 0002:00008a3c       $unwind$_RTC_Initialize    0000000180019a3c     LIBCMT:_initsect_.obj
 0002:00008a3c       $unwind$?free_crt_array_internal@@YAXQEAPEBX_K@Z 0000000180019a3c     libucrt:inittime.obj
 0002:00008a3c       $unwind$_RTC_Terminate     0000000180019a3c     LIBCMT:_initsect_.obj
 0002:00008a3c       $unwind$?type_case_Z@?$output_processor@DV?$string_output_adapter@D@__crt_stdio_output@@V?$standard_base@DV?$string_output_adapter@D@__crt_stdio_output@@@2@@__crt_stdio_output@@AEAA_NXZ 0000000180019a3c     libucrt:output.obj
 0002:00008a3c       $unwind$?type_case_s@?$output_processor@DV?$string_output_adapter@D@__crt_stdio_output@@V?$standard_base@DV?$string_output_adapter@D@__crt_stdio_output@@@2@@__crt_stdio_output@@AEAA_NXZ 0000000180019a3c     libucrt:output.obj
 0002:00008a4c       $unwind$__acrt_fltout      0000000180019a4c     libucrt:cfout.obj
 0002:00008a6c       $unwind$?divide@__crt_strtox@@YA_KAEAUbig_integer@1@AEBU21@@Z 0000000180019a6c     libucrt:cfout.obj
 0002:00008a8c       $chain$5$?divide@__crt_strtox@@YA_KAEAUbig_integer@1@AEBU21@@Z 0000000180019a8c     libucrt:cfout.obj
 0002:00008aa0       $chain$6$?divide@__crt_strtox@@YA_KAEAUbig_integer@1@AEBU21@@Z 0000000180019aa0     libucrt:cfout.obj
 0002:00008ab0       $unwind$_fcloseall         0000000180019ab0     libucrt:closeall.obj
 0002:00008ad4       $unwind$__acrt_locale_free_monetary 0000000180019ad4     libucrt:initmon.obj
 0002:00008adc       $unwind$__acrt_locale_free_time 0000000180019adc     libucrt:inittime.obj
 0002:00008aec       $unwind$__acrt_GetStringTypeA 0000000180019aec     libucrt:getstringtypea.obj
 0002:00008b14       $unwind$__dcrt_terminate_console_output 0000000180019b14     libucrt:initcon.obj
 0002:00008b14       $unwind$??$uninitialize_environment_internal@D@@YAXAEAPEAPEAD@Z 0000000180019b14     libucrt:environment_initialization.obj
 0002:00008b14       $unwind$_get_osfhandle     0000000180019b14     libucrt:osfinfo.obj
 0002:00008b14       $unwind$__scrt_dllmain_uninitialize_critical 0000000180019b14     LIBCMT:utility.obj
 0002:00008b14       $unwind$__dcrt_uninitialize_environments_nolock 0000000180019b14     libucrt:environment_initialization.obj
 0002:00008b14       $unwind$?state_case_size@?$output_processor@DV?$string_output_adapter@D@__crt_stdio_output@@V?$standard_base@DV?$string_output_adapter@D@__crt_stdio_output@@@2@@__crt_stdio_output@@AEAA_NXZ 0000000180019b14     libucrt:output.obj
 0002:00008b14       $unwind$__pctype_func      0000000180019b14     libucrt:ctype.obj
 0002:00008b14       $unwind$??$uninitialize_environment_internal@_W@@YAXAEAPEAPEA_W@Z 0000000180019b14     libucrt:environment_initialization.obj
 0002:00008b14       $unwind$_getfpcontrolword  0000000180019b14     libucrt:_fenvutils.obj
 0002:00008b14       $unwind$__scrt_dllmain_crt_thread_detach 0000000180019b14     LIBCMT:utility.obj
 0002:00008b14       $unwind$_fileno            0000000180019b14     libucrt:fileno.obj
 0002:00008b14       $unwind$?state_case_normal_tchar@?$output_processor@DV?$string_output_adapter@D@__crt_stdio_output@@V?$standard_base@DV?$string_output_adapter@D@__crt_stdio_output@@@2@@__crt_stdio_output@@AEAA_ND@Z 0000000180019b14     libucrt:output.obj
 0002:00008b14       $unwind$_getfpstatusword   0000000180019b14     libucrt:_fenvutils.obj
 0002:00008b14       $unwind$_errno             0000000180019b14     libucrt:errno.obj
 0002:00008b14       $unwind$__acrt_initialize_ptd 0000000180019b14     libucrt:per_thread_data.obj
 0002:00008b14       $unwind$__acrt_initialize_command_line 0000000180019b14     libucrt:argv_data.obj
 0002:00008b14       $unwind$__doserrno         0000000180019b14     libucrt:errno.obj
 0002:00008b14       $unwind$_isatty            0000000180019b14     libucrt:isatty.obj
 0002:00008b14       $unwind$?initialize_multibyte@@YAHXZ 0000000180019b14     libucrt:multibyte_initializer.obj
 0002:00008b14       $unwind$__GSHandlerCheck   0000000180019b14     LIBCMT:_gshandler_.obj
 0002:00008b14       $unwind$tolower            0000000180019b14     libucrt:tolower_toupper.obj
 0002:00008b14       $unwind$_statfp            0000000180019b14     libucrt:fpctrl.obj
 0002:00008b14       $unwind$_set_errno_from_matherr 0000000180019b14     libucrt:fpexcept.obj
 0002:00008b14       $unwind$__report_rangecheckfailure 0000000180019b14     LIBCMT:gs_report.obj
 0002:00008b14       $unwind$_invoke_watson     0000000180019b14     libucrt:invalid_parameter.obj
 0002:00008b14       $unwind$__scrt_dllmain_uninitialize_c 0000000180019b14     LIBCMT:utility.obj
 0002:00008b14       $unwind$__acrt_initialize_heap 0000000180019b14     libucrt:heap_handle.obj
 0002:00008b14       $unwind$__scrt_initialize_default_local_stdio_options 0000000180019b14     LIBCMT:default_local_stdio_options.obj
 0002:00008b14       $unwind$_msize             0000000180019b14     libucrt:msize.obj
 0002:00008b14       $unwind$__acrt_release_locale_ref 0000000180019b14     libucrt:locale_refcounting.obj
 0002:00008b14       $unwind$__scrt_acquire_startup_lock 0000000180019b14     LIBCMT:utility.obj
 0002:00008b14       $unwind$__vcrt_freefls     0000000180019b14     libvcruntime:per_thread_data.obj
 0002:00008b14       $unwind$__acrt_uninitialize_critical 0000000180019b14     libucrt:initialization.obj
 0002:00008b14       $unwind$__acrt_DownlevelLocaleNameToLCID 0000000180019b14     libucrt:lcidtoname_downlevel.obj
 0002:00008b14       $unwind$__acrt_thread_attach 0000000180019b14     libucrt:initialization.obj
 0002:00008b14       $unwind$?dllmain_crt_dispatch@@YAHQEAUHINSTANCE__@@KQEAX@Z 0000000180019b14     LIBCMT:dll_dllmain.obj
 0002:00008b14       $unwind$__scrt_dllmain_after_initialize_c 0000000180019b14     LIBCMT:utility.obj
 0002:00008b14       $unwind$__vcrt_uninitialize_ptd 0000000180019b14     libvcruntime:per_thread_data.obj
 0002:00008b14       $unwind$__acrt_uninitialize_ptd 0000000180019b14     libucrt:per_thread_data.obj
 0002:00008b14       $unwind$__vcrt_initialize_ptd 0000000180019b14     libvcruntime:per_thread_data.obj
 0002:00008b14       $unwind$atexit             0000000180019b14     LIBCMT:utility.obj
 0002:00008b14       $unwind$abort              0000000180019b14     libucrt:abort.obj
 0002:00008b14       $unwind$__acrt_thread_detach 0000000180019b14     libucrt:initialization.obj
 0002:00008b14       $unwind$initialize_c       0000000180019b14     libucrt:initialization.obj
 0002:00008b14       $unwind$__vcrt_thread_detach 0000000180019b14     libvcruntime:initialization.obj
 0002:00008b14       $unwind$__vcrt_thread_attach 0000000180019b14     libvcruntime:initialization.obj
 0002:00008b14       $unwind$__vcrt_uninitialize_critical 0000000180019b14     libvcruntime:initialization.obj
 0002:00008b14       $unwind$__scrt_dllmain_before_initialize_c 0000000180019b14     LIBCMT:utility.obj
 0002:00008b14       $unwind$__vcrt_uninitialize 0000000180019b14     libvcruntime:initialization.obj
 0002:00008b14       $unwind$__scrt_dllmain_crt_thread_attach 0000000180019b14     LIBCMT:utility.obj
 0002:00008b14       $unwind$__vcrt_initialize  0000000180019b14     libvcruntime:initialization.obj
 0002:00008b14       $unwind$__acrt_initialize_multibyte 0000000180019b14     libucrt:mbctype.obj
 0002:00008b14       $unwind$uninitialize_environment 0000000180019b14     libucrt:initialization.obj
 0002:00008b1c       $unwind$__acrt_lowio_destroy_handle_array 0000000180019b1c     libucrt:osfinfo.obj
 0002:00008b2c       $unwind$__acrt_lowio_ensure_fh_exists 0000000180019b2c     libucrt:osfinfo.obj
 0002:00008b58       $unwind$??$?RV<lambda_b521505b218e5242e90febf6bfebc422>@@AEAV<lambda_6978c1fb23f02e42e1d9e99668cc68aa>@@V<lambda_314360699dd331753a4119843814e9a7>@@@?$__crt_seh_guarded_call@H@@QEAAH$$QEAV<lambda_b521505b218e5242e90febf6bfebc422>@@AEAV<lambda_6978c1fb23f02e42e1d9e99668cc68aa>@@$$QEAV<lambda_314360699dd331753a4119843814e9a7>@@@Z 0000000180019b58     libucrt:commit.obj
 0002:00008b7c       $unwind$_write             0000000180019b7c     libucrt:write.obj
 0002:00008bac       $unwind$_write_nolock      0000000180019bac     libucrt:write.obj
 0002:00008bc4       $unwind$?write_double_translated_ansi_nolock@@YA?AUwrite_result@?A0x9c548279@@HQEBDI@Z 0000000180019bc4     libucrt:write.obj
 0002:00008be4       $unwind$?write_text_utf16le_nolock@@YA?AUwrite_result@?A0x9c548279@@HQEBDI@Z 0000000180019be4     libucrt:write.obj
 0002:00008be4       $unwind$?write_text_ansi_nolock@@YA?AUwrite_result@?A0x9c548279@@HQEBDI@Z 0000000180019be4     libucrt:write.obj
 0002:00008c04       $unwind$?write_text_utf8_nolock@@YA?AUwrite_result@?A0x9c548279@@HQEBDI@Z 0000000180019c04     libucrt:write.obj
 0002:00008c28       $unwind$?GetTableIndexFromLocaleName@@YAHPEB_W@Z 0000000180019c28     libucrt:lcidtoname_downlevel.obj
 0002:00008c40       $unwind$qsort              0000000180019c40     libucrt:qsort.obj
 0002:00008c58       $chain$4$qsort             0000000180019c58     libucrt:qsort.obj
 0002:00008c7c       $chain$5$qsort             0000000180019c7c     libucrt:qsort.obj
 0002:00008c8c       $unwind$?shortsort@@YAXPEAD0_KP6AHPEBX2@Z@Z 0000000180019c8c     libucrt:qsort.obj
 0002:00008c9c       $chain$2$?shortsort@@YAXPEAD0_KP6AHPEBX2@Z@Z 0000000180019c9c     libucrt:qsort.obj
 0002:00008cb8       $chain$3$?shortsort@@YAXPEAD0_KP6AHPEBX2@Z@Z 0000000180019cb8     libucrt:qsort.obj
 0002:00008cc8       $unwind$strpbrk            0000000180019cc8     libucrt:strpbrk.obj
 0002:00008cd8       $unwind$_mbsdec_l          0000000180019cd8     libucrt:mbsdec.obj
 0002:00008ce8       $xdatasym                  0000000180019ce8     libucrt:log10.obj
 0002:00008cf4       $unwind$fclose             0000000180019cf4     libucrt:fclose.obj
 0002:00008d18       $unwind$__report_gsfailure 0000000180019d18     LIBCMT:gs_report.obj
 0002:00008d18       $unwind$_putwch_nolock     0000000180019d18     libucrt:putwch.obj
 0002:00008d20       $unwind$common_control87   0000000180019d20     libucrt:ieee.obj
 0002:00008d50       $unwind$_call_matherr      0000000180019d50     libucrt:libm_error.obj
 0002:00008d58       $unwind$_handle_error      0000000180019d58     libucrt:libm_error.obj
 0002:00008d78       $unwind$__acrt_initialize_fma3 0000000180019d78     libucrt:fma3_available.obj
 0002:00008d80       $unwind$_log_special_common 0000000180019d80     libucrt:log_special.obj
 0002:00008d8c       $unwind$_close             0000000180019d8c     libucrt:close.obj
 0002:00008d8c       $unwind$_commit            0000000180019d8c     libucrt:commit.obj
 0002:00008d94       $unwind$??$?RV<lambda_bfedae4ebbf01fab1bb6dcc6a9e276e0>@@AEAV<lambda_2fe9b910cf3cbf4a0ab98a02ba45b3ec>@@V<lambda_237c231691f317818eb88cc1d5d642d6>@@@?$__crt_seh_guarded_call@H@@QEAAH$$QEAV<lambda_bfedae4ebbf01fab1bb6dcc6a9e276e0>@@AEAV<lambda_2fe9b910cf3cbf4a0ab98a02ba45b3ec>@@$$QEAV<lambda_237c231691f317818eb88cc1d5d642d6>@@@Z 0000000180019d94     libucrt:close.obj
 0002:00008db8       $unwind$__dcrt_lowio_initialize_console_output 0000000180019db8     libucrt:initcon.obj
 0002:00008db8       $unwind$_raise_exc         0000000180019db8     libucrt:fpexcept.obj
 0002:00008dc0       $xdatasym                  0000000180019dc0     libucrt:fpsr.obj
 0002:00008dc8       $unwind$_raise_exc_ex      0000000180019dc8     libucrt:fpexcept.obj
 0002:00008ddc       $unwind$_ctrlfp            0000000180019ddc     libucrt:fpctrl.obj
 0002:00008e04       $unwind$_IsNonwritableInCurrentImage 0000000180019e04     LIBCMT:pesect.obj
 0002:00008e28       $unwind$__GSHandlerCheckCommon 0000000180019e28     LIBCMT:_gshandler_.obj
 0002:00008e30       $xdatasym                  0000000180019e30     LIBCMT:_chkstk_.obj
 0002:00008e38       $xdatasym                  0000000180019e38     libvcruntime:memcpy.obj
 0002:00008e3c       $unwind$strrchr            0000000180019e3c     libvcruntime:strrchr.obj
 0002:00008e48       $xdatasym                  0000000180019e48     libvcruntime:memcmp.obj
 0002:00008e50       .edata                     0000000180019e50     crc64_ecma182.exp
 0002:00008e78       rgpv                       0000000180019e78     crc64_ecma182.exp
 0002:00008e7c       rgszName                   0000000180019e7c     crc64_ecma182.exp
 0002:00008e80       rgwOrd                     0000000180019e80     crc64_ecma182.exp
 0002:00008e82       szName                     0000000180019e82     crc64_ecma182.exp
 0002:00008e95       $N00001                    0000000180019e95     crc64_ecma182.exp
 0002:000091d0       .idata$6                   000000018001a1d0     kernel32:KERNEL32.dll
 0002:000098f8       .idata$6                   000000018001a8f8     iojs:node.dll
 0003:00000030       ?__vcrt_flsindex@@3KA      000000018001b030     libvcruntime:per_thread_data.obj
 0003:00000038       errno_no_memory            000000018001b038     libucrt:errno.obj
 0003:0000003c       doserrno_no_memory         000000018001b03c     libucrt:errno.obj
 0003:00000040       __acrt_flsindex            000000018001b040     libucrt:per_thread_data.obj
 0003:00000500       __rgctypeflag              000000018001b500     libucrt:mbctype.obj
 0003:00000510       __rgcode_page_info         000000018001b510     libucrt:mbctype.obj
 0003:000008c0       ?dazSupported@?1??common_control87@@9@9 000000018001b8c0     libucrt:ieee.obj
 0003:000008e0       ?dazSupported@?1??_ctrlfp@@9@9 000000018001b8e0     libucrt:fpctrl.obj
 0003:00000900       _module                    000000018001b900     node_crc64_ecma_182.obj
 0003:00000940       ?__proc_attached@@3HA      000000018001b940     LIBCMT:dll_dllmain.obj
 0003:00000950       GS_ExceptionRecord         000000018001b950     LIBCMT:gs_report.obj
 0003:000009f0       GS_ContextRecord           000000018001b9f0     LIBCMT:gs_report.obj
 0003:00000ed0       ?module_local_atexit_table@@3U_onexit_table_t@@A 000000018001bed0     LIBCMT:utility.obj
 0003:00000ee8       ?module_local_at_quick_exit_table@@3U_onexit_table_t@@A 000000018001bee8     LIBCMT:utility.obj
 0003:00000f00       ?is_initialized_as_dll@@3_NA 000000018001bf00     LIBCMT:utility.obj
 0003:00000f30       ?__vcrt_startup_thread_ptd@@3U__vcrt_ptd@@A 000000018001bf30     libvcruntime:per_thread_data.obj
 0003:00000fa8       __vcrt_lock_table          000000018001bfa8     libvcruntime:locks.obj
 0003:00000fd0       __vcrt_locks_initialized   000000018001bfd0     libvcruntime:locks.obj
 0003:00000fe0       ?module_handles@@3PAPEAUHINSTANCE__@@A 000000018001bfe0     libvcruntime:winapi_downlevel.obj
 0003:00001000       ?encoded_function_pointers@@3PAPEAXA 000000018001c000     libvcruntime:winapi_downlevel.obj
 0003:00001098       ?heap@@3V_HeapManager@@A   000000018001c098     libvcruntime:undname.obj
 0003:000010c0       c_termination_complete     000000018001c0c0     libucrt:exit.obj
 0003:000010c8       thread_local_exit_callback_func 000000018001c0c8     libucrt:exit.obj
 0003:000010d0       ?c_exit_complete@?5??common_exit@@YAXHW4_crt_exit_cleanup_mode@@W4_crt_exit_return_mode@@@Z@4_NA 000000018001c0d0     libucrt:exit.obj
 0003:000010e0       ?program_name@?5???$common_configure_argv@D@@YAHW4_crt_argv_mode@@@Z@4PADA 000000018001c0e0     libucrt:argv_parsing.obj
 0003:00001238       __acrt_invalid_parameter_handler 000000018001c238     libucrt:invalid_parameter.obj
 0003:00001250       enable_percent_n           000000018001c250     libucrt:printf_count_output.obj
 0003:00001684       __acrt_app_type            000000018001c684     libucrt:report_runtime_error.obj
 0003:00001688       ctrlc_action               000000018001c688     libucrt:signal.obj
 0003:00001690       ctrlbreak_action           000000018001c690     libucrt:signal.obj
 0003:00001698       abort_action               000000018001c698     libucrt:signal.obj
 0003:000016a0       term_action                000000018001c6a0     libucrt:signal.obj
 0003:000016b0       __acrt_lock_table          000000018001c6b0     libucrt:locks.obj
 0003:000018b8       __acrt_locks_initialized   000000018001c8b8     libucrt:locks.obj
 0003:000018c0       module_handles             000000018001c8c0     libucrt:winapi_thunks.obj
 0003:00001960       encoded_function_pointers  000000018001c960     libucrt:winapi_thunks.obj
 0003:00001a60       ?state_cache@?1??__acrt_is_packaged_app@@9@4JA 000000018001ca60     libucrt:winapi_thunks.obj
 0003:00001a7c       fSystemSet                 000000018001ca7c     libucrt:mbctype.obj
 0003:00001a88       ?initialized@?1??__acrt_initialize_multibyte@@9@4_NA 000000018001ca88     libucrt:mbctype.obj
 0003:00001ac0       __acrt_new_handler         000000018001cac0     libucrt:new_handler.obj
 0003:00001ac8       user_matherr               000000018001cac8     libucrt:matherr.obj
 0003:00001ad0       __acrt_global_new_mode     000000018001cad0     libucrt:new_mode.obj
 0003:00001af0       ?ZERO@CRC64JS@@3_KA        000000018001caf0     node_crc64_ecma_182.obj
 0003:00001b00       ?crc64_big_table@crc64js_base@@3PAY0BAA@_KA 000000018001cb00     crc64_ecma182_base:crc64_ecma_182.obj
 0003:00005b00       ?crc64_little_table@crc64js_base@@3PAY0BAA@_KA 0000000180020b00     crc64_ecma182_base:crc64_ecma_182.obj
 0004:00000000       $pdata$sprintf             0000000180025000     node_crc64_ecma_182.obj
 0004:0000000c       $pdata$?FunctionCallbackWrapper@imp@Nan@@YAXAEBV?$FunctionCallbackInfo@VValue@v8@@@v8@@@Z 000000018002500c     node_crc64_ecma_182.obj
 0004:00000018       $pdata$?New@?$Factory@VFunctionTemplate@v8@@@imp@Nan@@SA?AV?$Local@VFunctionTemplate@v8@@@v8@@P6AXAEBV?$FunctionCallbackInfo@VValue@v8@@@3@@ZV?$Local@VValue@v8@@@5@V?$Local@VSignature@v8@@@5@@Z 0000000180025018     node_crc64_ecma_182.obj
 0004:00000024       $pdata$0$?New@?$Factory@VFunctionTemplate@v8@@@imp@Nan@@SA?AV?$Local@VFunctionTemplate@v8@@@v8@@P6AXAEBV?$FunctionCallbackInfo@VValue@v8@@@3@@ZV?$Local@VValue@v8@@@5@V?$Local@VSignature@v8@@@5@@Z 0000000180025024     node_crc64_ecma_182.obj
 0004:00000030       $pdata$1$?New@?$Factory@VFunctionTemplate@v8@@@imp@Nan@@SA?AV?$Local@VFunctionTemplate@v8@@@v8@@P6AXAEBV?$FunctionCallbackInfo@VValue@v8@@@3@@ZV?$Local@VValue@v8@@@5@V?$Local@VSignature@v8@@@5@@Z 0000000180025030     node_crc64_ecma_182.obj
 0004:0000003c       $pdata$2$?New@?$Factory@VFunctionTemplate@v8@@@imp@Nan@@SA?AV?$Local@VFunctionTemplate@v8@@@v8@@P6AXAEBV?$FunctionCallbackInfo@VValue@v8@@@3@@ZV?$Local@VValue@v8@@@5@V?$Local@VSignature@v8@@@5@@Z 000000018002503c     node_crc64_ecma_182.obj
 0004:00000048       $pdata$3$?New@?$Factory@VFunctionTemplate@v8@@@imp@Nan@@SA?AV?$Local@VFunctionTemplate@v8@@@v8@@P6AXAEBV?$FunctionCallbackInfo@VValue@v8@@@3@@ZV?$Local@VValue@v8@@@5@V?$Local@VSignature@v8@@@5@@Z 0000000180025048     node_crc64_ecma_182.obj
 0004:00000054       $pdata$?Export@Nan@@YAXV?$Local@VObject@v8@@@v8@@PEBDP6AXAEBV?$FunctionCallbackInfo@VValue@v8@@@1@@Z@Z 0000000180025054     node_crc64_ecma_182.obj
 0004:00000060       $pdata$?CRC64@CRC64JS@@YAXAEBV?$FunctionCallbackInfo@VValue@v8@@@Nan@@@Z 0000000180025060     node_crc64_ecma_182.obj
 0004:0000006c       $pdata$?ToUInt64String@CRC64JS@@YAXAEBV?$FunctionCallbackInfo@VValue@v8@@@Nan@@@Z 000000018002506c     node_crc64_ecma_182.obj
 0004:00000078       $pdata$?Init@CRC64JS@@YAXV?$Local@VObject@v8@@@v8@@@Z 0000000180025078     node_crc64_ecma_182.obj
 0004:00000084       $pdata$?crc64_little@crc64js_base@@YA_K_KPEAX0@Z 0000000180025084     crc64_ecma182_base:crc64_ecma_182.obj
 0004:00000090       $pdata$0$?crc64_little@crc64js_base@@YA_K_KPEAX0@Z 0000000180025090     crc64_ecma182_base:crc64_ecma_182.obj
 0004:0000009c       $pdata$1$?crc64_little@crc64js_base@@YA_K_KPEAX0@Z 000000018002509c     crc64_ecma182_base:crc64_ecma_182.obj
 0004:000000b4       $pdata$?dllmain_crt_dispatch@@YAHQEAUHINSTANCE__@@KQEAX@Z 00000001800250b4     LIBCMT:dll_dllmain.obj
 0004:000000c0       $pdata$?dllmain_crt_process_attach@@YAHQEAUHINSTANCE__@@QEAX@Z 00000001800250c0     LIBCMT:dll_dllmain.obj
 0004:000000cc       $pdata$?dllmain_crt_process_detach@@YAH_N@Z 00000001800250cc     LIBCMT:dll_dllmain.obj
 0004:000000d8       $pdata$?dllmain_dispatch@@YAHQEAUHINSTANCE__@@KQEAX@Z 00000001800250d8     LIBCMT:dll_dllmain.obj
 0004:000000e4       $pdata$?dllmain_raw@@YAHQEAUHINSTANCE__@@KQEAX@Z 00000001800250e4     LIBCMT:dll_dllmain.obj
 0004:000000f0       $pdata$_DllMainCRTStartup  00000001800250f0     LIBCMT:dll_dllmain.obj
 0004:000000fc       $pdata$__raise_securityfailure 00000001800250fc     LIBCMT:gs_report.obj
 0004:00000108       $pdata$__report_gsfailure  0000000180025108     LIBCMT:gs_report.obj
 0004:00000114       $pdata$__report_rangecheckfailure 0000000180025114     LIBCMT:gs_report.obj
 0004:00000120       $pdata$__report_securityfailure 0000000180025120     LIBCMT:gs_report.obj
 0004:0000012c       $pdata$capture_current_context 000000018002512c     LIBCMT:gs_report.obj
 0004:00000138       $pdata$capture_previous_context 0000000180025138     LIBCMT:gs_report.obj
 0004:00000144       $pdata$__scrt_acquire_startup_lock 0000000180025144     LIBCMT:utility.obj
 0004:00000150       $pdata$__scrt_dllmain_after_initialize_c 0000000180025150     LIBCMT:utility.obj
 0004:0000015c       $pdata$__scrt_dllmain_before_initialize_c 000000018002515c     LIBCMT:utility.obj
 0004:00000168       $pdata$__scrt_dllmain_crt_thread_attach 0000000180025168     LIBCMT:utility.obj
 0004:00000174       $pdata$__scrt_dllmain_crt_thread_detach 0000000180025174     LIBCMT:utility.obj
 0004:00000180       $pdata$__scrt_dllmain_exception_filter 0000000180025180     LIBCMT:utility.obj
 0004:0000018c       $pdata$__scrt_dllmain_uninitialize_c 000000018002518c     LIBCMT:utility.obj
 0004:00000198       $pdata$__scrt_dllmain_uninitialize_critical 0000000180025198     LIBCMT:utility.obj
 0004:000001a4       $pdata$__scrt_initialize_crt 00000001800251a4     LIBCMT:utility.obj
 0004:000001b0       $pdata$__scrt_initialize_onexit_tables 00000001800251b0     LIBCMT:utility.obj
 0004:000001bc       $pdata$__scrt_is_nonwritable_in_current_image 00000001800251bc     LIBCMT:utility.obj
 0004:000001c8       $pdata$__scrt_release_startup_lock 00000001800251c8     LIBCMT:utility.obj
 0004:000001d4       $pdata$__scrt_uninitialize_crt 00000001800251d4     LIBCMT:utility.obj
 0004:000001e0       $pdata$_onexit             00000001800251e0     LIBCMT:utility.obj
 0004:000001ec       $pdata$atexit              00000001800251ec     LIBCMT:utility.obj
 0004:000001f8       $pdata$__security_init_cookie 00000001800251f8     LIBCMT:gs_support.obj
 0004:00000204       $pdata$__scrt_initialize_default_local_stdio_options 0000000180025204     LIBCMT:default_local_stdio_options.obj
 0004:00000210       $pdata$__scrt_fastfail     0000000180025210     LIBCMT:utility_desktop.obj
 0004:0000021c       $pdata$_RTC_Initialize     000000018002521c     LIBCMT:_initsect_.obj
 0004:00000228       $pdata$_RTC_Terminate      0000000180025228     LIBCMT:_initsect_.obj
 0004:00000234       $pdata$__isa_available_init 0000000180025234     LIBCMT:_cpu_disp_.obj
 0004:00000240       $pdata$__C_specific_handler 0000000180025240     libvcruntime:_chandler_.obj
 0004:0000024c       $pdata$__vcrt_initialize   000000018002524c     libvcruntime:initialization.obj
 0004:00000258       $pdata$__vcrt_thread_attach 0000000180025258     libvcruntime:initialization.obj
 0004:00000264       $pdata$__vcrt_thread_detach 0000000180025264     libvcruntime:initialization.obj
 0004:00000270       $pdata$__vcrt_uninitialize 0000000180025270     libvcruntime:initialization.obj
 0004:0000027c       $pdata$__vcrt_uninitialize_critical 000000018002527c     libvcruntime:initialization.obj
 0004:00000288       $pdata$__std_type_info_destroy_list 0000000180025288     libvcruntime:std_type_info.obj
 0004:000002d0       $pdata$__vcrt_freefls      00000001800252d0     libvcruntime:per_thread_data.obj
 0004:000002dc       $pdata$__vcrt_freeptd      00000001800252dc     libvcruntime:per_thread_data.obj
 0004:000002e8       $pdata$__vcrt_getptd_noexit 00000001800252e8     libvcruntime:per_thread_data.obj
 0004:000002f4       $pdata$__vcrt_initialize_ptd 00000001800252f4     libvcruntime:per_thread_data.obj
 0004:00000300       $pdata$__vcrt_uninitialize_ptd 0000000180025300     libvcruntime:per_thread_data.obj
 0004:0000030c       $pdata$__vcrt_initialize_locks 000000018002530c     libvcruntime:locks.obj
 0004:00000318       $pdata$__vcrt_uninitialize_locks 0000000180025318     libvcruntime:locks.obj
 0004:00000324       $pdata$?try_get_function@@YAPEAXW4function_id@?A0x679b24ab@@QEBDQEBW4module_id@2@2@Z 0000000180025324     libvcruntime:winapi_downlevel.obj
 0004:00000330       $pdata$__vcrt_FlsAlloc     0000000180025330     libvcruntime:winapi_downlevel.obj
 0004:0000033c       $pdata$__vcrt_FlsFree      000000018002533c     libvcruntime:winapi_downlevel.obj
 0004:00000348       $pdata$__vcrt_FlsGetValue  0000000180025348     libvcruntime:winapi_downlevel.obj
 0004:00000354       $pdata$__vcrt_FlsSetValue  0000000180025354     libvcruntime:winapi_downlevel.obj
 0004:00000360       $pdata$__vcrt_InitializeCriticalSectionEx 0000000180025360     libvcruntime:winapi_downlevel.obj
 0004:0000036c       $pdata$__vcrt_uninitialize_winapi_thunks 000000018002536c     libvcruntime:winapi_downlevel.obj
 0004:00000378       $pdata$??$ensure_buffer_is_big_enough@D@formatting_buffer@__crt_stdio_output@@QEAA_N_K@Z 0000000180025378     libucrt:output.obj
 0004:00000384       $pdata$??$type_case_integer_parse_into_buffer@I@?$output_processor@DV?$string_output_adapter@D@__crt_stdio_output@@V?$standard_base@DV?$string_output_adapter@D@__crt_stdio_output@@@2@@__crt_stdio_output@@AEAAXII_N@Z 0000000180025384     libucrt:output.obj
 0004:00000390       $pdata$??$type_case_integer_parse_into_buffer@_K@?$output_processor@DV?$string_output_adapter@D@__crt_stdio_output@@V?$standard_base@DV?$string_output_adapter@D@__crt_stdio_output@@@2@@__crt_stdio_output@@AEAAX_KI_N@Z 0000000180025390     libucrt:output.obj
 0004:0000039c       $pdata$??$write_multiple_characters@V?$string_output_adapter@D@__crt_stdio_output@@D@__crt_stdio_output@@YAXAEBV?$string_output_adapter@D@0@DHQEAH@Z 000000018002539c     libucrt:output.obj
 0004:000003a8       $pdata$??0?$output_processor@DV?$string_output_adapter@D@__crt_stdio_output@@V?$standard_base@DV?$string_output_adapter@D@__crt_stdio_output@@@2@@__crt_stdio_output@@QEAA@AEBV?$string_output_adapter@D@1@_KQEBDQEAU__crt_locale_pointers@@QEAD@Z 00000001800253a8     libucrt:output.obj
 0004:000003b4       $pdata$??0_LocaleUpdate@@QEAA@QEAU__crt_locale_pointers@@@Z 00000001800253b4     libucrt:output.obj
 0004:000003c0       $pdata$?force_decimal_point@__crt_stdio_output@@YAXPEADQEAU__crt_locale_pointers@@@Z 00000001800253c0     libucrt:output.obj
 0004:000003cc       $pdata$?parse_int_from_format_string@?$output_processor@DV?$string_output_adapter@D@__crt_stdio_output@@V?$standard_base@DV?$string_output_adapter@D@__crt_stdio_output@@@2@@__crt_stdio_output@@AEAA_NQEAH@Z 00000001800253cc     libucrt:output.obj
 0004:000003d8       $pdata$?process@?$output_processor@DV?$string_output_adapter@D@__crt_stdio_output@@V?$standard_base@DV?$string_output_adapter@D@__crt_stdio_output@@@2@@__crt_stdio_output@@QEAAHXZ 00000001800253d8     libucrt:output.obj
 0004:000003e4       $pdata$?state_case_normal@?$output_processor@DV?$string_output_adapter@D@__crt_stdio_output@@V?$standard_base@DV?$string_output_adapter@D@__crt_stdio_output@@@2@@__crt_stdio_output@@AEAA_NXZ 00000001800253e4     libucrt:output.obj
 0004:000003f0       $pdata$?state_case_normal_tchar@?$output_processor@DV?$string_output_adapter@D@__crt_stdio_output@@V?$standard_base@DV?$string_output_adapter@D@__crt_stdio_output@@@2@@__crt_stdio_output@@AEAA_ND@Z 00000001800253f0     libucrt:output.obj
 0004:000003fc       $pdata$?state_case_size@?$output_processor@DV?$string_output_adapter@D@__crt_stdio_output@@V?$standard_base@DV?$string_output_adapter@D@__crt_stdio_output@@@2@@__crt_stdio_output@@AEAA_NXZ 00000001800253fc     libucrt:output.obj
 0004:00000408       $pdata$?state_case_type@?$output_processor@DV?$string_output_adapter@D@__crt_stdio_output@@V?$standard_base@DV?$string_output_adapter@D@__crt_stdio_output@@@2@@__crt_stdio_output@@AEAA_NXZ 0000000180025408     libucrt:output.obj
 0004:00000414       $pdata$?type_case_Z@?$output_processor@DV?$string_output_adapter@D@__crt_stdio_output@@V?$standard_base@DV?$string_output_adapter@D@__crt_stdio_output@@@2@@__crt_stdio_output@@AEAA_NXZ 0000000180025414     libucrt:output.obj
 0004:00000420       $pdata$?type_case_a@?$output_processor@DV?$string_output_adapter@D@__crt_stdio_output@@V?$standard_base@DV?$string_output_adapter@D@__crt_stdio_output@@@2@@__crt_stdio_output@@AEAA_NXZ 0000000180025420     libucrt:output.obj
 0004:0000042c       $pdata$?type_case_c_tchar@?$output_processor@DV?$string_output_adapter@D@__crt_stdio_output@@V?$standard_base@DV?$string_output_adapter@D@__crt_stdio_output@@@2@@__crt_stdio_output@@AEAA_ND@Z 000000018002542c     libucrt:output.obj
 0004:00000438       $pdata$?type_case_integer@?$output_processor@DV?$string_output_adapter@D@__crt_stdio_output@@V?$standard_base@DV?$string_output_adapter@D@__crt_stdio_output@@@2@@__crt_stdio_output@@AEAA_NI_N@Z 0000000180025438     libucrt:output.obj
 0004:00000444       $pdata$?type_case_n@?$output_processor@DV?$string_output_adapter@D@__crt_stdio_output@@V?$standard_base@DV?$string_output_adapter@D@__crt_stdio_output@@@2@@__crt_stdio_output@@AEAA_NXZ 0000000180025444     libucrt:output.obj
 0004:00000450       $pdata$?type_case_s@?$output_processor@DV?$string_output_adapter@D@__crt_stdio_output@@V?$standard_base@DV?$string_output_adapter@D@__crt_stdio_output@@@2@@__crt_stdio_output@@AEAA_NXZ 0000000180025450     libucrt:output.obj
 0004:0000045c       $pdata$?write_stored_string_tchar@?$output_processor@DV?$string_output_adapter@D@__crt_stdio_output@@V?$standard_base@DV?$string_output_adapter@D@__crt_stdio_output@@@2@@__crt_stdio_output@@AEAA_ND@Z 000000018002545c     libucrt:output.obj
 0004:00000468       $pdata$?write_string@?$string_output_adapter@D@__crt_stdio_output@@QEBAXQEBDHQEAH1@Z 0000000180025468     libucrt:output.obj
 0004:00000474       $pdata$__stdio_common_vsprintf 0000000180025474     libucrt:output.obj
 0004:00000480       $pdata$_initterm           0000000180025480     libucrt:initterm.obj
 0004:0000048c       $pdata$_initterm_e         000000018002548c     libucrt:initterm.obj
 0004:00000498       $pdata$_seh_filter_exe     0000000180025498     libucrt:exception_filter.obj
 0004:000004a4       $pdata$?common_exit@@YAXHW4_crt_exit_cleanup_mode@@W4_crt_exit_return_mode@@@Z 00000001800254a4     libucrt:exit.obj
 0004:000004b0       $pdata$?exit_or_terminate_process@@YAXI@Z 00000001800254b0     libucrt:exit.obj
 0004:000004bc       $pdata$?try_cor_exit_process@@YAXI@Z 00000001800254bc     libucrt:exit.obj
 0004:000004c8       $pdata$??$parse_command_line@D@@YAXPEADPEAPEAD0PEA_K2@Z 00000001800254c8     libucrt:argv_parsing.obj
 0004:000004d4       $pdata$__acrt_allocate_buffer_for_argv 00000001800254d4     libucrt:argv_parsing.obj
 0004:000004e0       $pdata$_configure_narrow_argv 00000001800254e0     libucrt:argv_parsing.obj
 0004:000004ec       $pdata$??$common_initialize_environment_nolock@D@@YAHXZ 00000001800254ec     libucrt:environment_initialization.obj
 0004:000004f8       $pdata$??$create_environment@D@@YAQEAPEADQEAD@Z 00000001800254f8     libucrt:environment_initialization.obj
 0004:00000504       $pdata$??$free_environment@D@@YAXQEAPEAD@Z 0000000180025504     libucrt:environment_initialization.obj
 0004:00000504       $pdata$??$free_environment@_W@@YAXQEAPEA_W@Z 0000000180025504     libucrt:environment_initialization.obj
 0004:00000510       $pdata$??$uninitialize_environment_internal@D@@YAXAEAPEAPEAD@Z 0000000180025510     libucrt:environment_initialization.obj
 0004:0000051c       $pdata$??$uninitialize_environment_internal@_W@@YAXAEAPEAPEA_W@Z 000000018002551c     libucrt:environment_initialization.obj
 0004:00000528       $pdata$__dcrt_uninitialize_environments_nolock 0000000180025528     libucrt:environment_initialization.obj
 0004:00000534       $pdata$??$?RV<lambda_b8c45f8f788dd370798f47cfe8ac3a86>@@AEAV<lambda_4e60a939b0d047cfe11ddc22648dfba9>@@V<lambda_332c3edc96d0294ec56c57d38c1cdfd5>@@@?$__crt_seh_guarded_call@H@@QEAAH$$QEAV<lambda_b8c45f8f788dd370798f47cfe8ac3a86>@@AEAV<lambda_4e60a939b0d047cfe11ddc22648dfba9>@@$$QEAV<lambda_332c3edc96d0294ec56c57d38c1cdfd5>@@@Z 0000000180025534     libucrt:onexit.obj
 0004:00000540       $pdata$??$?RV<lambda_e24bbb7b643b32fcea6fa61b31d4c984>@@AEAV<lambda_275893d493268fdec8709772e3fcec0e>@@V<lambda_9d71df4d7cf3f480f8d633942495c3b0>@@@?$__crt_seh_guarded_call@H@@QEAAH$$QEAV<lambda_e24bbb7b643b32fcea6fa61b31d4c984>@@AEAV<lambda_275893d493268fdec8709772e3fcec0e>@@$$QEAV<lambda_9d71df4d7cf3f480f8d633942495c3b0>@@@Z 0000000180025540     libucrt:onexit.obj
 0004:0000054c       $pdata$??R<lambda_4e60a939b0d047cfe11ddc22648dfba9>@@QEBAHXZ 000000018002554c     libucrt:onexit.obj
 0004:00000558       $pdata$_execute_onexit_table 0000000180025558     libucrt:onexit.obj
 0004:00000564       $pdata$_register_onexit_function 0000000180025564     libucrt:onexit.obj
 0004:00000570       $pdata$initialize_c        0000000180025570     libucrt:initialization.obj
 0004:0000057c       $pdata$uninitialize_environment 000000018002557c     libucrt:initialization.obj
 0004:00000588       $pdata$initialize_pointers 0000000180025588     libucrt:initialization.obj
 0004:00000594       $pdata$uninitialize_allocated_memory 0000000180025594     libucrt:initialization.obj
 0004:000005a0       $pdata$__acrt_thread_attach 00000001800255a0     libucrt:initialization.obj
 0004:000005ac       $pdata$__acrt_thread_detach 00000001800255ac     libucrt:initialization.obj
 0004:000005b8       $pdata$__acrt_uninitialize_critical 00000001800255b8     libucrt:initialization.obj
 0004:000005c4       $pdata$terminate           00000001800255c4     libucrt:terminate.obj
 0004:000005d0       $pdata$_free_base          00000001800255d0     libucrt:free_base.obj
 0004:000005dc       $pdata$_malloc_base        00000001800255dc     libucrt:malloc_base.obj
 0004:000005e8       $pdata$strcpy_s            00000001800255e8     libucrt:strcpy_s.obj
 0004:000005f4       $pdata$abort               00000001800255f4     libucrt:abort.obj
 0004:00000600       $pdata$_calloc_base        0000000180025600     libucrt:calloc_base.obj
 0004:0000060c       $pdata$??$parse_integer@KV?$c_string_character_source@D@__crt_strtox@@@__crt_strtox@@YAKQEAU__crt_locale_pointers@@V?$c_string_character_source@D@0@H_N@Z 000000018002560c     libucrt:atox.obj
 0004:00000618       $pdata$__acrt_call_reportfault 0000000180025618     libucrt:invalid_parameter.obj
 0004:00000624       $pdata$_invalid_parameter  0000000180025624     libucrt:invalid_parameter.obj
 0004:00000630       $pdata$_invalid_parameter_noinfo 0000000180025630     libucrt:invalid_parameter.obj
 0004:0000063c       $pdata$_invoke_watson      000000018002563c     libucrt:invalid_parameter.obj
 0004:00000648       $pdata$isdigit             0000000180025648     libucrt:_ctype.obj
 0004:00000654       $pdata$?internal_isupper_l@@YA_NHQEAU__crt_locale_pointers@@@Z 0000000180025654     libucrt:tolower_toupper.obj
 0004:00000660       $pdata$_tolower_l          0000000180025660     libucrt:tolower_toupper.obj
 0004:0000066c       $pdata$tolower             000000018002566c     libucrt:tolower_toupper.obj
 0004:00000678       $pdata$__acrt_errno_map_os_error 0000000180025678     libucrt:errno.obj
 0004:00000684       $pdata$__doserrno          0000000180025684     libucrt:errno.obj
 0004:00000690       $pdata$_errno              0000000180025690     libucrt:errno.obj
 0004:0000069c       $pdata$strtol              000000018002569c     libucrt:strtox.obj
 0004:000006a8       $pdata$_mbtowc_l           00000001800256a8     libucrt:mbtowc.obj
 0004:000006b4       $pdata$_wctomb_s_l         00000001800256b4     libucrt:wctomb.obj
 0004:000006c0       $pdata$wctomb_s            00000001800256c0     libucrt:wctomb.obj
 0004:000006cc       $pdata$strnlen             00000001800256cc     libucrt:strnlen.obj
 0004:000006d8       $pdata$wcsnlen             00000001800256d8     libucrt:strnlen.obj
 0004:000006e4       $pdata$??$?RV<lambda_46352004c1216016012b18bd6f87e700>@@AEAV<lambda_3bd07e1a1191394380780325891bf33f>@@V<lambda_334532d3f185bcaa59b5be82d7d22bff>@@@?$__crt_seh_guarded_call@X@@QEAAX$$QEAV<lambda_46352004c1216016012b18bd6f87e700>@@AEAV<lambda_3bd07e1a1191394380780325891bf33f>@@$$QEAV<lambda_334532d3f185bcaa59b5be82d7d22bff>@@@Z 00000001800256e4     libucrt:per_thread_data.obj
 0004:000006f0       $pdata$??$?RV<lambda_5e887d1dcbef67a5eb4283622ba103bf>@@AEAV<lambda_4466841279450cc726390878d4a41900>@@V<lambda_341c25c0346d94847f1f3c463c57e077>@@@?$__crt_seh_guarded_call@X@@QEAAX$$QEAV<lambda_5e887d1dcbef67a5eb4283622ba103bf>@@AEAV<lambda_4466841279450cc726390878d4a41900>@@$$QEAV<lambda_341c25c0346d94847f1f3c463c57e077>@@@Z 00000001800256f0     libucrt:per_thread_data.obj
 0004:000006fc       $pdata$??$?RV<lambda_72d1df2b273a38828b1ce30cbf4cdab5>@@AEAV<lambda_876a65b173b8412d3a47c70a915b0cf4>@@V<lambda_41932305e351933ebe8f8be3ed8bb5dc>@@@?$__crt_seh_guarded_call@X@@QEAAX$$QEAV<lambda_72d1df2b273a38828b1ce30cbf4cdab5>@@AEAV<lambda_876a65b173b8412d3a47c70a915b0cf4>@@$$QEAV<lambda_41932305e351933ebe8f8be3ed8bb5dc>@@@Z 00000001800256fc     libucrt:per_thread_data.obj
 0004:00000708       $pdata$??$?RV<lambda_fb3a7dec4e47f37f22dae91bb15c9095>@@AEAV<lambda_698284760c8add0bfb0756c19673e34b>@@V<lambda_dfb8eca1e75fef3034a8fb18dd509707>@@@?$__crt_seh_guarded_call@X@@QEAAX$$QEAV<lambda_fb3a7dec4e47f37f22dae91bb15c9095>@@AEAV<lambda_698284760c8add0bfb0756c19673e34b>@@$$QEAV<lambda_dfb8eca1e75fef3034a8fb18dd509707>@@@Z 0000000180025708     libucrt:per_thread_data.obj
 0004:00000714       $pdata$?construct_ptd_array@@YAXQEAU__acrt_ptd@@@Z 0000000180025714     libucrt:per_thread_data.obj
 0004:00000720       $pdata$?destroy_fls@@YAXPEAX@Z 0000000180025720     libucrt:per_thread_data.obj
 0004:0000072c       $pdata$?destroy_ptd_array@@YAXQEAU__acrt_ptd@@@Z 000000018002572c     libucrt:per_thread_data.obj
 0004:00000738       $pdata$?replace_current_thread_locale_nolock@@YAXQEAU__acrt_ptd@@QEAU__crt_locale_data@@@Z 0000000180025738     libucrt:per_thread_data.obj
 0004:00000744       $pdata$__acrt_freeptd      0000000180025744     libucrt:per_thread_data.obj
 0004:00000750       $pdata$__acrt_getptd       0000000180025750     libucrt:per_thread_data.obj
 0004:0000075c       $pdata$__acrt_getptd_noexit 000000018002575c     libucrt:per_thread_data.obj
 0004:00000768       $pdata$__acrt_initialize_ptd 0000000180025768     libucrt:per_thread_data.obj
 0004:00000774       $pdata$__acrt_uninitialize_ptd 0000000180025774     libucrt:per_thread_data.obj
 0004:00000780       $pdata$__acrt_update_locale_info 0000000180025780     libucrt:locale_update.obj
 0004:0000078c       $pdata$__acrt_update_multibyte_info 000000018002578c     libucrt:locale_update.obj
 0004:00000798       $pdata$?fp_format_a@@YAHQEBNPEAD_KQEAD2H_NIQEAU__crt_locale_pointers@@@Z 0000000180025798     libucrt:cvt.obj
 0004:000007a4       $pdata$?fp_format_e@@YAHQEBNQEAD_K12H_NIQEAU__crt_locale_pointers@@@Z 00000001800257a4     libucrt:cvt.obj
 0004:000007b0       $pdata$?fp_format_e_internal@@YAHQEAD_KH_NIQEAU_strflt@@2QEAU__crt_locale_pointers@@@Z 00000001800257b0     libucrt:cvt.obj
 0004:000007bc       $pdata$?fp_format_f_internal@@YAHQEAD_KHQEAU_strflt@@_NQEAU__crt_locale_pointers@@@Z 00000001800257bc     libucrt:cvt.obj
 0004:000007c8       $pdata$?fp_format_g@@YAHQEBNQEAD_K12H_NIQEAU__crt_locale_pointers@@@Z 00000001800257c8     libucrt:cvt.obj
 0004:000007d4       $pdata$?fp_format_nan_or_infinity@@YAHW4__acrt_fp_class@@_NPEAD_K1@Z 00000001800257d4     libucrt:cvt.obj
 0004:000007e0       $pdata$__acrt_fp_format    00000001800257e0     libucrt:cvt.obj
 0004:000007ec       $pdata$_fileno             00000001800257ec     libucrt:fileno.obj
 0004:000007f8       $pdata$__acrt_initialize_stdio 00000001800257f8     libucrt:_file.obj
 0004:00000804       $pdata$__acrt_uninitialize_stdio 0000000180025804     libucrt:_file.obj
 0004:00000810       $pdata$__acrt_uninitialize_locale 0000000180025810     libucrt:wsetlocale.obj
 0004:0000081c       $pdata$?initialize_inherited_file_handles_nolock@@YAXXZ 000000018002581c     libucrt:ioinit.obj
 0004:00000828       $pdata$?initialize_stdio_handles_nolock@@YAXXZ 0000000180025828     libucrt:ioinit.obj
 0004:00000834       $pdata$__acrt_initialize_lowio 0000000180025834     libucrt:ioinit.obj
 0004:00000840       $pdata$__acrt_uninitialize_lowio 0000000180025840     libucrt:ioinit.obj
 0004:0000084c       $pdata$__acrt_stdio_flush_nolock 000000018002584c     libucrt:fflush.obj
 0004:00000858       $pdata$_fflush_nolock      0000000180025858     libucrt:fflush.obj
 0004:00000864       $pdata$common_flush_all    0000000180025864     libucrt:fflush.obj
 0004:00000870       $pdata$??$?RV<lambda_c36588078e9f5dfd39652860aa6b3aaf>@@AEAV<lambda_ec61778202f4f5fc7e7711acc23c3bca>@@V<lambda_dc9d2797ccde5d239b4a0efae8ebd7db>@@@?$__crt_seh_guarded_call@P6AXH@Z@@QEAAP6AXH@Z$$QEAV<lambda_c36588078e9f5dfd39652860aa6b3aaf>@@AEAV<lambda_ec61778202f4f5fc7e7711acc23c3bca>@@$$QEAV<lambda_dc9d2797ccde5d239b4a0efae8ebd7db>@@@Z 0000000180025870     libucrt:signal.obj
 0004:0000087c       $pdata$__acrt_get_sigabrt_handler 000000018002587c     libucrt:signal.obj
 0004:00000888       $pdata$raise               0000000180025888     libucrt:signal.obj
 0004:00000894       $pdata$__acrt_initialize_locks 0000000180025894     libucrt:locks.obj
 0004:000008a0       $pdata$__acrt_uninitialize_locks 00000001800258a0     libucrt:locks.obj
 0004:000008ac       $pdata$?try_get_function@@YAPEAXW4function_id@?A0x63058377@@QEBDQEBW4module_id@2@2@Z 00000001800258ac     libucrt:winapi_thunks.obj
 0004:000008b8       $pdata$__acrt_FlsAlloc     00000001800258b8     libucrt:winapi_thunks.obj
 0004:000008c4       $pdata$__acrt_FlsFree      00000001800258c4     libucrt:winapi_thunks.obj
 0004:000008d0       $pdata$__acrt_FlsGetValue  00000001800258d0     libucrt:winapi_thunks.obj
 0004:000008dc       $pdata$__acrt_FlsSetValue  00000001800258dc     libucrt:winapi_thunks.obj
 0004:000008e8       $pdata$__acrt_InitializeCriticalSectionEx 00000001800258e8     libucrt:winapi_thunks.obj
 0004:000008f4       $pdata$__acrt_LCMapStringEx 00000001800258f4     libucrt:winapi_thunks.obj
 0004:00000900       $pdata$__acrt_LocaleNameToLCID 0000000180025900     libucrt:winapi_thunks.obj
 0004:0000090c       $pdata$__acrt_initialize_winapi_thunks 000000018002590c     libucrt:winapi_thunks.obj
 0004:00000918       $pdata$__acrt_is_packaged_app 0000000180025918     libucrt:winapi_thunks.obj
 0004:00000924       $pdata$__acrt_uninitialize_winapi_thunks 0000000180025924     libucrt:winapi_thunks.obj
 0004:00000930       $pdata$??$common_expand_argv_wildcards@D@@YAHQEAPEADQEAPEAPEAD@Z 0000000180025930     libucrt:argv_wildcards.obj
 0004:0000093c       $pdata$??$copy_and_add_argument_to_buffer@D@@YAHQEBD0_KAEAV?$argument_list@D@?A0xca0879c4@@@Z 000000018002593c     libucrt:argv_wildcards.obj
 0004:00000948       $pdata$??$expand_argument_wildcards@D@@YAHQEAD0AEAV?$argument_list@D@?A0xca0879c4@@@Z 0000000180025948     libucrt:argv_wildcards.obj
 0004:00000954       $pdata$?expand_if_necessary@?$argument_list@D@?A0xca0879c4@@AEAAHXZ 0000000180025954     libucrt:argv_wildcards.obj
 0004:00000960       $pdata$??$?RV<lambda_99476a1ad63dd22509b5d3e65b0ffc95>@@AEAV<lambda_ad1ced32f4ac17aa236e5ef05d6b3b7c>@@V<lambda_f7424dd8d45958661754dc4f2697e9c3>@@@?$__crt_seh_guarded_call@X@@QEAAX$$QEAV<lambda_99476a1ad63dd22509b5d3e65b0ffc95>@@AEAV<lambda_ad1ced32f4ac17aa236e5ef05d6b3b7c>@@$$QEAV<lambda_f7424dd8d45958661754dc4f2697e9c3>@@@Z 0000000180025960     libucrt:mbctype.obj
 0004:0000096c       $pdata$??R<lambda_ad1ced32f4ac17aa236e5ef05d6b3b7c>@@QEBAXXZ 000000018002596c     libucrt:mbctype.obj
 0004:00000978       $pdata$?getSystemCP@@YAHH@Z 0000000180025978     libucrt:mbctype.obj
 0004:00000984       $pdata$?setSBCS@@YAXPEAU__crt_multibyte_data@@@Z 0000000180025984     libucrt:mbctype.obj
 0004:00000990       $pdata$?setSBUpLow@@YAXPEAU__crt_multibyte_data@@@Z 0000000180025990     libucrt:mbctype.obj
 0004:0000099c       $pdata$?setmbcp_internal@@YAHH_N@Z 000000018002599c     libucrt:mbctype.obj
 0004:000009a8       $pdata$__acrt_initialize_multibyte 00000001800259a8     libucrt:mbctype.obj
 0004:000009b4       $pdata$__acrt_update_thread_multibyte_data 00000001800259b4     libucrt:mbctype.obj
 0004:000009c0       $pdata$_setmbcp_nolock     00000001800259c0     libucrt:mbctype.obj
 0004:000009cc       $pdata$?x_ismbbtype_l@@YAHPEAU__crt_locale_pointers@@IHH@Z 00000001800259cc     libucrt:ismbbyte.obj
 0004:000009d8       $pdata$__acrt_initialize_command_line 00000001800259d8     libucrt:argv_data.obj
 0004:000009e4       $pdata$__dcrt_get_narrow_environment_from_os 00000001800259e4     libucrt:get_environment_from_os.obj
 0004:000009f0       $pdata$_recalloc_base      00000001800259f0     libucrt:recalloc.obj
 0004:000009fc       $pdata$__acrt_initialize_heap 00000001800259fc     libucrt:heap_handle.obj
 0004:00000a08       $pdata$__acrt_execute_initializers 0000000180025a08     libucrt:shared_initialization.obj
 0004:00000a14       $pdata$__acrt_execute_uninitializers 0000000180025a14     libucrt:shared_initialization.obj
 0004:00000a20       $pdata$_callnewh           0000000180025a20     libucrt:new_handler.obj
 0004:00000a2c       $pdata$_query_new_handler  0000000180025a2c     libucrt:new_handler.obj
 0004:00000a38       $pdata$__acrt_invoke_user_matherr 0000000180025a38     libucrt:matherr.obj
 0004:00000a44       $pdata$__pctype_func       0000000180025a44     libucrt:ctype.obj
 0004:00000a50       $pdata$_isctype_l          0000000180025a50     libucrt:isctype.obj
 0004:00000a5c       $pdata$_isleadbyte_l       0000000180025a5c     libucrt:_wctype.obj
 0004:00000a68       $pdata$?__acrt_LCMapStringA_stat@@YAHPEAU__crt_locale_pointers@@PEB_WKPEBDHPEADHHH@Z 0000000180025a68     libucrt:lcmapstringa.obj
 0004:00000a74       $pdata$__acrt_LCMapStringA 0000000180025a74     libucrt:lcmapstringa.obj
 0004:00000a80       $pdata$__acrt_free_locale  0000000180025a80     libucrt:locale_refcounting.obj
 0004:00000a8c       $pdata$__acrt_locale_free_lc_time_if_unreferenced 0000000180025a8c     libucrt:locale_refcounting.obj
 0004:00000a98       $pdata$__acrt_release_locale_ref 0000000180025a98     libucrt:locale_refcounting.obj
 0004:00000aa4       $pdata$__acrt_update_thread_locale_data 0000000180025aa4     libucrt:locale_refcounting.obj
 0004:00000ab0       $pdata$_updatetlocinfoEx_nolock 0000000180025ab0     libucrt:locale_refcounting.obj
 0004:00000abc       $pdata$__acrt_fp_strflt_to_string 0000000180025abc     libucrt:_fptostr.obj
 0004:00000ac8       $pdata$?divide@__crt_strtox@@YA_KAEAUbig_integer@1@AEBU21@@Z 0000000180025ac8     libucrt:cfout.obj
 0004:00000ad4       $pdata$5$?divide@__crt_strtox@@YA_KAEAUbig_integer@1@AEBU21@@Z 0000000180025ad4     libucrt:cfout.obj
 0004:00000ae0       $pdata$6$?divide@__crt_strtox@@YA_KAEAUbig_integer@1@AEBU21@@Z 0000000180025ae0     libucrt:cfout.obj
 0004:00000aec       $pdata$__acrt_fltout       0000000180025aec     libucrt:cfout.obj
 0004:00000af8       $pdata$memcpy_s            0000000180025af8     libucrt:cfout.obj
 0004:00000b04       $pdata$_fcloseall          0000000180025b04     libucrt:closeall.obj
 0004:00000b10       $pdata$__acrt_stdio_free_buffer_nolock 0000000180025b10     libucrt:_freebuf.obj
 0004:00000b1c       $pdata$_isatty             0000000180025b1c     libucrt:isatty.obj
 0004:00000b28       $pdata$__acrt_locale_free_monetary 0000000180025b28     libucrt:initmon.obj
 0004:00000b34       $pdata$__acrt_locale_free_numeric 0000000180025b34     libucrt:initnum.obj
 0004:00000b40       $pdata$?free_crt_array_internal@@YAXQEAPEBX_K@Z 0000000180025b40     libucrt:inittime.obj
 0004:00000b4c       $pdata$__acrt_locale_free_time 0000000180025b4c     libucrt:inittime.obj
 0004:00000b58       $pdata$__acrt_GetStringTypeA 0000000180025b58     libucrt:getstringtypea.obj
 0004:00000b64       $pdata$__acrt_lowio_create_handle_array 0000000180025b64     libucrt:osfinfo.obj
 0004:00000b70       $pdata$__acrt_lowio_destroy_handle_array 0000000180025b70     libucrt:osfinfo.obj
 0004:00000b7c       $pdata$__acrt_lowio_ensure_fh_exists 0000000180025b7c     libucrt:osfinfo.obj
 0004:00000b88       $pdata$_free_osfhnd        0000000180025b88     libucrt:osfinfo.obj
 0004:00000b94       $pdata$_get_osfhandle      0000000180025b94     libucrt:osfinfo.obj
 0004:00000ba0       $pdata$??$?RV<lambda_b521505b218e5242e90febf6bfebc422>@@AEAV<lambda_6978c1fb23f02e42e1d9e99668cc68aa>@@V<lambda_314360699dd331753a4119843814e9a7>@@@?$__crt_seh_guarded_call@H@@QEAAH$$QEAV<lambda_b521505b218e5242e90febf6bfebc422>@@AEAV<lambda_6978c1fb23f02e42e1d9e99668cc68aa>@@$$QEAV<lambda_314360699dd331753a4119843814e9a7>@@@Z 0000000180025ba0     libucrt:commit.obj
 0004:00000bac       $pdata$_commit             0000000180025bac     libucrt:commit.obj
 0004:00000bb8       $pdata$?write_double_translated_ansi_nolock@@YA?AUwrite_result@?A0x9c548279@@HQEBDI@Z 0000000180025bb8     libucrt:write.obj
 0004:00000bc4       $pdata$?write_text_ansi_nolock@@YA?AUwrite_result@?A0x9c548279@@HQEBDI@Z 0000000180025bc4     libucrt:write.obj
 0004:00000bd0       $pdata$?write_text_utf16le_nolock@@YA?AUwrite_result@?A0x9c548279@@HQEBDI@Z 0000000180025bd0     libucrt:write.obj
 0004:00000bdc       $pdata$?write_text_utf8_nolock@@YA?AUwrite_result@?A0x9c548279@@HQEBDI@Z 0000000180025bdc     libucrt:write.obj
 0004:00000be8       $pdata$_write              0000000180025be8     libucrt:write.obj
 0004:00000bf4       $pdata$_write_nolock       0000000180025bf4     libucrt:write.obj
 0004:00000c00       $pdata$?GetTableIndexFromLocaleName@@YAHPEB_W@Z 0000000180025c00     libucrt:lcidtoname_downlevel.obj
 0004:00000c0c       $pdata$__acrt_DownlevelLocaleNameToLCID 0000000180025c0c     libucrt:lcidtoname_downlevel.obj
 0004:00000c18       $pdata$?shortsort@@YAXPEAD0_KP6AHPEBX2@Z@Z 0000000180025c18     libucrt:qsort.obj
 0004:00000c24       $pdata$2$?shortsort@@YAXPEAD0_KP6AHPEBX2@Z@Z 0000000180025c24     libucrt:qsort.obj
 0004:00000c30       $pdata$3$?shortsort@@YAXPEAD0_KP6AHPEBX2@Z@Z 0000000180025c30     libucrt:qsort.obj
 0004:00000c3c       $pdata$qsort               0000000180025c3c     libucrt:qsort.obj
 0004:00000c48       $pdata$4$qsort             0000000180025c48     libucrt:qsort.obj
 0004:00000c54       $pdata$5$qsort             0000000180025c54     libucrt:qsort.obj
 0004:00000c60       $pdata$strncpy_s           0000000180025c60     libucrt:strncpy_s.obj
 0004:00000c6c       $pdata$strpbrk             0000000180025c6c     libucrt:strpbrk.obj
 0004:00000c78       $pdata$_mbsdec_l           0000000180025c78     libucrt:mbsdec.obj
 0004:00000c84       $pdata$?initialize_multibyte@@YAHXZ 0000000180025c84     libucrt:multibyte_initializer.obj
 0004:00000c90       $pdata$_msize              0000000180025c90     libucrt:msize.obj
 0004:00000c9c       $pdata$_realloc_base       0000000180025c9c     libucrt:realloc_base.obj
 0004:00000ca8       $pdata$fegetenv            0000000180025ca8     libucrt:fegetenv.obj
 0004:00000cb4       $pdata$fesetenv            0000000180025cb4     libucrt:fesetenv.obj
 0004:00000cc0       $pdata$feholdexcept        0000000180025cc0     libucrt:feholdexcept.obj
 0004:00000cd8       $pdata$??$common_lseek_nolock@_J@@YA_JH_JH@Z 0000000180025cd8     libucrt:lseek.obj
 0004:00000ce4       $pdata$_fclose_nolock      0000000180025ce4     libucrt:fclose.obj
 0004:00000cf0       $pdata$fclose              0000000180025cf0     libucrt:fclose.obj
 0004:00000cfc       $pdata$_putwch_nolock      0000000180025cfc     libucrt:putwch.obj
 0004:00000d08       $pdata$_getfpcontrolword   0000000180025d08     libucrt:_fenvutils.obj
 0004:00000d14       $pdata$_getfpstatusword    0000000180025d14     libucrt:_fenvutils.obj
 0004:00000d20       $pdata$_setfpstatusword    0000000180025d20     libucrt:_fenvutils.obj
 0004:00000d2c       $pdata$_clearfp            0000000180025d2c     libucrt:ieee.obj
 0004:00000d38       $pdata$common_control87    0000000180025d38     libucrt:ieee.obj
 0004:00000d44       $pdata$_call_matherr       0000000180025d44     libucrt:libm_error.obj
 0004:00000d50       $pdata$_exception_enabled  0000000180025d50     libucrt:libm_error.obj
 0004:00000d5c       $pdata$_handle_error       0000000180025d5c     libucrt:libm_error.obj
 0004:00000d68       $pdata$__acrt_initialize_fma3 0000000180025d68     libucrt:fma3_available.obj
 0004:00000d74       $pdata$_log10_special      0000000180025d74     libucrt:log_special.obj
 0004:00000d80       $pdata$_log_special_common 0000000180025d80     libucrt:log_special.obj
 0004:00000d8c       $pdata$??$?RV<lambda_bfedae4ebbf01fab1bb6dcc6a9e276e0>@@AEAV<lambda_2fe9b910cf3cbf4a0ab98a02ba45b3ec>@@V<lambda_237c231691f317818eb88cc1d5d642d6>@@@?$__crt_seh_guarded_call@H@@QEAAH$$QEAV<lambda_bfedae4ebbf01fab1bb6dcc6a9e276e0>@@AEAV<lambda_2fe9b910cf3cbf4a0ab98a02ba45b3ec>@@$$QEAV<lambda_237c231691f317818eb88cc1d5d642d6>@@@Z 0000000180025d8c     libucrt:close.obj
 0004:00000d98       $pdata$_close              0000000180025d98     libucrt:close.obj
 0004:00000da4       $pdata$_close_nolock       0000000180025da4     libucrt:close.obj
 0004:00000db0       $pdata$__dcrt_lowio_initialize_console_output 0000000180025db0     libucrt:initcon.obj
 0004:00000dbc       $pdata$__dcrt_terminate_console_output 0000000180025dbc     libucrt:initcon.obj
 0004:00000dd4       $pdata$_raise_exc          0000000180025dd4     libucrt:fpexcept.obj
 0004:00000de0       $pdata$_raise_exc_ex       0000000180025de0     libucrt:fpexcept.obj
 0004:00000dec       $pdata$_set_errno_from_matherr 0000000180025dec     libucrt:fpexcept.obj
 0004:00000df8       $pdata$_clrfp              0000000180025df8     libucrt:fpctrl.obj
 0004:00000e04       $pdata$_ctrlfp             0000000180025e04     libucrt:fpctrl.obj
 0004:00000e10       $pdata$_set_statfp         0000000180025e10     libucrt:fpctrl.obj
 0004:00000e1c       $pdata$_statfp             0000000180025e1c     libucrt:fpctrl.obj
 0004:00000e28       $pdata$_IsNonwritableInCurrentImage 0000000180025e28     LIBCMT:pesect.obj
 0004:00000e34       $pdata$__GSHandlerCheck    0000000180025e34     LIBCMT:_gshandler_.obj
 0004:00000e40       $pdata$__GSHandlerCheckCommon 0000000180025e40     LIBCMT:_gshandler_.obj
 0004:00000e64       $pdata$strrchr             0000000180025e64     libvcruntime:strrchr.obj
 0004:00000e88       $pdata$?fin$0@?0??dllmain_crt_process_attach@@YAHQEAUHINSTANCE__@@QEAX@Z@4HA 0000000180025e88     LIBCMT:dll_dllmain.obj
 0004:00000e94       $pdata$?fin$0@?0??dllmain_crt_process_detach@@YAH_N@Z@4HA 0000000180025e94     LIBCMT:dll_dllmain.obj
 0004:00000ea0       $pdata$?filt$0@?0??dllmain_dispatch@@YAHQEAUHINSTANCE__@@KQEAX@Z@4HA 0000000180025ea0     LIBCMT:dll_dllmain.obj
 0004:00000eac       $pdata$__scrt_is_nonwritable_in_current_image$filt$0 0000000180025eac     LIBCMT:utility.obj
 0004:00000eb8       $pdata$?filt$0@?0??common_exit@@YAXHW4_crt_exit_cleanup_mode@@W4_crt_exit_return_mode@@@Z@4HA 0000000180025eb8     libucrt:exit.obj
 0004:00000ec4       $pdata$?fin$1@?0??common_exit@@YAXHW4_crt_exit_cleanup_mode@@W4_crt_exit_return_mode@@@Z@4HA 0000000180025ec4     libucrt:exit.obj
 0004:00000ed0       $pdata$?fin$0@?0???$?RV<lambda_e24bbb7b643b32fcea6fa61b31d4c984>@@AEAV<lambda_275893d493268fdec8709772e3fcec0e>@@V<lambda_9d71df4d7cf3f480f8d633942495c3b0>@@@?$__crt_seh_guarded_call@H@@QEAAH$$QEAV<lambda_e24bbb7b643b32fcea6fa61b31d4c984>@@AEAV<lambda_275893d493268fdec8709772e3fcec0e>@@$$QEAV<lambda_9d71df4d7cf3f480f8d633942495c3b0>@@@Z@4HA 0000000180025ed0     libucrt:onexit.obj
 0004:00000edc       $pdata$?fin$0@?0???$?RV<lambda_99476a1ad63dd22509b5d3e65b0ffc95>@@AEAV<lambda_ad1ced32f4ac17aa236e5ef05d6b3b7c>@@V<lambda_f7424dd8d45958661754dc4f2697e9c3>@@@?$__crt_seh_guarded_call@X@@QEAAX$$QEAV<lambda_99476a1ad63dd22509b5d3e65b0ffc95>@@AEAV<lambda_ad1ced32f4ac17aa236e5ef05d6b3b7c>@@$$QEAV<lambda_f7424dd8d45958661754dc4f2697e9c3>@@@Z@4HA 0000000180025edc     libucrt:mbctype.obj
 0004:00000edc       $pdata$?fin$0@?0???$?RV<lambda_72d1df2b273a38828b1ce30cbf4cdab5>@@AEAV<lambda_876a65b173b8412d3a47c70a915b0cf4>@@V<lambda_41932305e351933ebe8f8be3ed8bb5dc>@@@?$__crt_seh_guarded_call@X@@QEAAX$$QEAV<lambda_72d1df2b273a38828b1ce30cbf4cdab5>@@AEAV<lambda_876a65b173b8412d3a47c70a915b0cf4>@@$$QEAV<lambda_41932305e351933ebe8f8be3ed8bb5dc>@@@Z@4HA 0000000180025edc     libucrt:per_thread_data.obj
 0004:00000edc       $pdata$?fin$0@?0???$?RV<lambda_b8c45f8f788dd370798f47cfe8ac3a86>@@AEAV<lambda_4e60a939b0d047cfe11ddc22648dfba9>@@V<lambda_332c3edc96d0294ec56c57d38c1cdfd5>@@@?$__crt_seh_guarded_call@H@@QEAAH$$QEAV<lambda_b8c45f8f788dd370798f47cfe8ac3a86>@@AEAV<lambda_4e60a939b0d047cfe11ddc22648dfba9>@@$$QEAV<lambda_332c3edc96d0294ec56c57d38c1cdfd5>@@@Z@4HA 0000000180025edc     libucrt:onexit.obj
 0004:00000edc       $pdata$?fin$0@?0???$?RV<lambda_c36588078e9f5dfd39652860aa6b3aaf>@@AEAV<lambda_ec61778202f4f5fc7e7711acc23c3bca>@@V<lambda_dc9d2797ccde5d239b4a0efae8ebd7db>@@@?$__crt_seh_guarded_call@P6AXH@Z@@QEAAP6AXH@Z$$QEAV<lambda_c36588078e9f5dfd39652860aa6b3aaf>@@AEAV<lambda_ec61778202f4f5fc7e7711acc23c3bca>@@$$QEAV<lambda_dc9d2797ccde5d239b4a0efae8ebd7db>@@@Z@4HA 0000000180025edc     libucrt:signal.obj
 0004:00000edc       $pdata$?fin$0@?0???$?RV<lambda_5e887d1dcbef67a5eb4283622ba103bf>@@AEAV<lambda_4466841279450cc726390878d4a41900>@@V<lambda_341c25c0346d94847f1f3c463c57e077>@@@?$__crt_seh_guarded_call@X@@QEAAX$$QEAV<lambda_5e887d1dcbef67a5eb4283622ba103bf>@@AEAV<lambda_4466841279450cc726390878d4a41900>@@$$QEAV<lambda_341c25c0346d94847f1f3c463c57e077>@@@Z@4HA 0000000180025edc     libucrt:per_thread_data.obj
 0004:00000edc       $pdata$?fin$0@?0???$?RV<lambda_46352004c1216016012b18bd6f87e700>@@AEAV<lambda_3bd07e1a1191394380780325891bf33f>@@V<lambda_334532d3f185bcaa59b5be82d7d22bff>@@@?$__crt_seh_guarded_call@X@@QEAAX$$QEAV<lambda_46352004c1216016012b18bd6f87e700>@@AEAV<lambda_3bd07e1a1191394380780325891bf33f>@@$$QEAV<lambda_334532d3f185bcaa59b5be82d7d22bff>@@@Z@4HA 0000000180025edc     libucrt:per_thread_data.obj
 0004:00000edc       $pdata$?fin$0@?0???$?RV<lambda_fb3a7dec4e47f37f22dae91bb15c9095>@@AEAV<lambda_698284760c8add0bfb0756c19673e34b>@@V<lambda_dfb8eca1e75fef3034a8fb18dd509707>@@@?$__crt_seh_guarded_call@X@@QEAAX$$QEAV<lambda_fb3a7dec4e47f37f22dae91bb15c9095>@@AEAV<lambda_698284760c8add0bfb0756c19673e34b>@@$$QEAV<lambda_dfb8eca1e75fef3034a8fb18dd509707>@@@Z@4HA 0000000180025edc     libucrt:per_thread_data.obj
 0004:00000ee8       $pdata$__acrt_update_thread_locale_data$fin$0 0000000180025ee8     libucrt:locale_refcounting.obj
 0004:00000ee8       $pdata$__acrt_uninitialize_locale$fin$0 0000000180025ee8     libucrt:wsetlocale.obj
 0004:00000ef4       $pdata$common_flush_all$fin$0 0000000180025ef4     libucrt:fflush.obj
 0004:00000f00       $pdata$common_flush_all$fin$1 0000000180025f00     libucrt:fflush.obj
 0004:00000f0c       $pdata$raise$fin$0         0000000180025f0c     libucrt:signal.obj
 0004:00000f18       $pdata$__acrt_update_thread_multibyte_data$fin$0 0000000180025f18     libucrt:mbctype.obj
 0004:00000f24       $pdata$_query_new_handler$fin$0 0000000180025f24     libucrt:new_handler.obj
 0004:00000f30       $pdata$_fcloseall$fin$0    0000000180025f30     libucrt:closeall.obj
 0004:00000f3c       $pdata$__acrt_lowio_ensure_fh_exists$fin$0 0000000180025f3c     libucrt:osfinfo.obj
 0004:00000f3c       $pdata$__acrt_initialize_lowio$fin$0 0000000180025f3c     libucrt:ioinit.obj
 0004:00000f48       $pdata$_write$fin$0        0000000180025f48     libucrt:write.obj
 0004:00000f54       $pdata$fclose$fin$0        0000000180025f54     libucrt:fclose.obj
 0004:00000f60       $pdata$?fin$0@?0???$?RV<lambda_b521505b218e5242e90febf6bfebc422>@@AEAV<lambda_6978c1fb23f02e42e1d9e99668cc68aa>@@V<lambda_314360699dd331753a4119843814e9a7>@@@?$__crt_seh_guarded_call@H@@QEAAH$$QEAV<lambda_b521505b218e5242e90febf6bfebc422>@@AEAV<lambda_6978c1fb23f02e42e1d9e99668cc68aa>@@$$QEAV<lambda_314360699dd331753a4119843814e9a7>@@@Z@4HA 0000000180025f60     libucrt:commit.obj
 0004:00000f60       $pdata$?fin$0@?0???$?RV<lambda_bfedae4ebbf01fab1bb6dcc6a9e276e0>@@AEAV<lambda_2fe9b910cf3cbf4a0ab98a02ba45b3ec>@@V<lambda_237c231691f317818eb88cc1d5d642d6>@@@?$__crt_seh_guarded_call@H@@QEAAH$$QEAV<lambda_bfedae4ebbf01fab1bb6dcc6a9e276e0>@@AEAV<lambda_2fe9b910cf3cbf4a0ab98a02ba45b3ec>@@$$QEAV<lambda_237c231691f317818eb88cc1d5d642d6>@@@Z@4HA 0000000180025f60     libucrt:close.obj
 0004:00000f6c       $pdata$common_control87$filt$0 0000000180025f6c     libucrt:ieee.obj
 0004:00000f6c       $pdata$_ctrlfp$filt$0      0000000180025f6c     libucrt:fpctrl.obj
 0004:00000f78       $pdata$_IsNonwritableInCurrentImage$filt$0 0000000180025f78     LIBCMT:pesect.obj
 0005:00000000       __guard_fids__             0000000180026000     libucrt:initialization.obj
 0005:00000060       __guard_fids___acrt_initialize_ptd 0000000180026060     libucrt:per_thread_data.obj
 0005:00000064       __guard_fids_??$expand_argument_wildcards@D@@YAHQEAD0AEAV?$argument_list@D@?A0xca0879c4@@@Z 0000000180026064     libucrt:argv_wildcards.obj
 0005:00000068       __guard_fids__             0000000180026068     libucrt:stdio_initializer.obj
 0005:0000006c       __guard_fids__             000000018002606c     libucrt:stdio_initializer.obj
 0005:00000070       __guard_fids__             0000000180026070     libucrt:locale_initializer.obj
 0005:00000074       __guard_fids__             0000000180026074     libucrt:multibyte_initializer.obj
 0005:00000078       __guard_fids__             0000000180026078     libucrt:fma3_initializer.obj
 0005:0000007c       __guard_fids__             000000018002607c     libucrt:console_output_initializer.obj
 0005:00000080       __guard_fids_?dllmain_crt_process_attach@@YAHQEAUHINSTANCE__@@QEAX@Z 0000000180026080     LIBCMT:dll_dllmain.obj
 0005:00000088       __guard_fids_?dllmain_dispatch@@YAHQEAUHINSTANCE__@@KQEAX@Z 0000000180026088     LIBCMT:dll_dllmain.obj
 0005:0000008c       __guard_fids__             000000018002608c     LIBCMT:guard_support.obj
 0005:00000090       __guard_fids___vcrt_initialize_ptd 0000000180026090     libvcruntime:per_thread_data.obj
 0006:00000060       $R000000                   0000000180027060     * linker generated manifest res *

 Exports

  ordinal    name

        1    _register_crc64_
